	.section	__TEXT,__text,regular,pure_instructions
	.build_version iossimulator, 13, 0	sdk_version 15, 2
	.file	1 "/Applications/Xcode.app/Contents/Developer/Platforms/iPhoneSimulator.platform/Developer/SDKs/iPhoneSimulator15.2.sdk/usr/include/objc" "NSObjCRuntime.h"
	.file	2 "/Users/king/WorkSpec/SourceCode/ccache/samples/ccache-sample" "Pods/Headers/Public/Masonry/MASConstraintMaker.h"
	.file	3 "/Applications/Xcode.app/Contents/Developer/Platforms/iPhoneSimulator.platform/Developer/SDKs/iPhoneSimulator15.2.sdk/System/Library/Frameworks/CoreGraphics.framework/Headers" "CGGeometry.h"
	.file	4 "/Applications/Xcode.app/Contents/Developer/Platforms/iPhoneSimulator.platform/Developer/SDKs/iPhoneSimulator15.2.sdk/System/Library/Frameworks/UIKit.framework/Headers" "UIGeometry.h"
	.file	5 "/Users/king/WorkSpec/SourceCode/ccache/samples/ccache-sample" "ccache-sample/ViewController.h"
	.file	6 "/Users/king/WorkSpec/SourceCode/ccache/samples/ccache-sample" "Pods/Headers/Public/IGListDiffKit/IGListCompatibility.h"
	.file	7 "/Users/king/WorkSpec/SourceCode/ccache/samples/ccache-sample" "Pods/Headers/Public/IGListDiffKit/IGListBatchUpdateData.h"
	.section	__TEXT,__literal8,8byte_literals
	.p2align	3                               ## -- Begin function -[ViewController viewDidLoad]
LCPI0_0:
	.quad	0x4059000000000000              ## double 100
LCPI0_1:
	.quad	0x4034000000000000              ## double 20
LCPI0_2:
	.quad	0x404e000000000000              ## double 60
	.section	__TEXT,__text,regular,pure_instructions
	.p2align	4, 0x90
"-[ViewController viewDidLoad]":        ## @"\01-[ViewController viewDidLoad]"
Lfunc_begin0:
	.file	8 "/Users/king/WorkSpec/SourceCode/ccache/samples/ccache-sample" "ccache-sample/ViewController.m"
	.loc	8 46 0                          ## ccache-sample/ViewController.m:46:0
	.cfi_startproc
## %bb.0:
	pushq	%rbp
	.cfi_def_cfa_offset 16
	.cfi_offset %rbp, -16
	movq	%rsp, %rbp
	.cfi_def_cfa_register %rbp
	subq	$400, %rsp                      ## imm = 0x190
	movq	%rdi, -8(%rbp)
	movq	%rsi, -16(%rbp)
Ltmp0:
	.loc	8 47 5 prologue_end             ## ccache-sample/ViewController.m:47:5
	movq	-8(%rbp), %rax
	movq	%rax, -32(%rbp)
	movq	l_OBJC_CLASSLIST_SUP_REFS_$_(%rip), %rax
	movq	%rax, -24(%rbp)
	movq	_OBJC_SELECTOR_REFERENCES_(%rip), %rsi
	leaq	-32(%rbp), %rdi
	callq	_objc_msgSendSuper2
## %bb.1:
Ltmp1:
	.loc	8 50 5                          ## ccache-sample/ViewController.m:50:5
	movq	-8(%rbp), %rdi
	movq	_OBJC_SELECTOR_REFERENCES_.2(%rip), %rsi
	callq	*_objc_msgSend@GOTPCREL(%rip)
	movq	%rax, %rdi
	callq	_objc_retainAutoreleasedReturnValue
	movq	%rax, %rdi
	xorl	%edx, %edx
	movq	%rdi, -272(%rbp)                ## 8-byte Spill
	movq	_OBJC_SELECTOR_REFERENCES_.4(%rip), %rsi
	callq	*_objc_msgSend@GOTPCREL(%rip)
	movq	-272(%rbp), %rdi                ## 8-byte Reload
	callq	*_objc_release@GOTPCREL(%rip)
	movq	_OBJC_CLASSLIST_REFERENCES_$_(%rip), %rdi
	callq	_objc_alloc
	movq	%rax, -264(%rbp)                ## 8-byte Spill
	movq	-8(%rbp), %rdi
	movq	_OBJC_SELECTOR_REFERENCES_.2(%rip), %rsi
	callq	*_objc_msgSend@GOTPCREL(%rip)
	movq	%rax, %rdi
	callq	_objc_retainAutoreleasedReturnValue
	movq	-264(%rbp), %rdi                ## 8-byte Reload
	movq	%rax, %rdx
	movq	%rdx, -256(%rbp)                ## 8-byte Spill
	movq	_OBJC_SELECTOR_REFERENCES_.6(%rip), %rsi
	callq	*_objc_msgSend@GOTPCREL(%rip)
	movq	-256(%rbp), %rdi                ## 8-byte Reload
	movq	%rax, -40(%rbp)
	callq	*_objc_release@GOTPCREL(%rip)
Ltmp2:
	.loc	8 50 5 is_stmt 0                ## ccache-sample/ViewController.m:50:5
	movq	-40(%rbp), %rdi
	movq	_OBJC_SELECTOR_REFERENCES_.8(%rip), %rsi
	callq	*_objc_msgSend@GOTPCREL(%rip)
	movq	%rax, %rdi
	callq	_objc_retainAutoreleasedReturnValue
	movq	%rax, %rdi
	movq	%rdi, -208(%rbp)                ## 8-byte Spill
	movq	_OBJC_SELECTOR_REFERENCES_.10(%rip), %rsi
	callq	*_objc_msgSend@GOTPCREL(%rip)
	movq	%rax, %rdi
	callq	_objc_retainAutoreleasedReturnValue
	movq	%rax, -240(%rbp)                ## 8-byte Spill
	movq	%rax, -216(%rbp)                ## 8-byte Spill
	movq	%rax, -248(%rbp)                ## 8-byte Spill
	movq	-8(%rbp), %rdi
	movq	_OBJC_SELECTOR_REFERENCES_.2(%rip), %rsi
	callq	*_objc_msgSend@GOTPCREL(%rip)
	movq	%rax, %rdi
	callq	_objc_retainAutoreleasedReturnValue
	movq	%rax, %rsi
	movq	%rsi, -224(%rbp)                ## 8-byte Spill
	leaq	L_.str(%rip), %rdi
	movb	$0, %al
	callq	__MASBoxValue
	movq	%rax, %rdi
	callq	_objc_retainAutoreleasedReturnValue
	movq	-248(%rbp), %rdi                ## 8-byte Reload
	movq	%rax, %rsi
	movq	-240(%rbp), %rax                ## 8-byte Reload
	movq	%rsi, -232(%rbp)                ## 8-byte Spill
	callq	*16(%rax)
	movq	%rax, %rdi
	callq	_objc_unsafeClaimAutoreleasedReturnValue
	movq	-232(%rbp), %rdi                ## 8-byte Reload
	callq	*_objc_release@GOTPCREL(%rip)
	movq	-224(%rbp), %rdi                ## 8-byte Reload
	callq	*_objc_release@GOTPCREL(%rip)
	movq	-216(%rbp), %rdi                ## 8-byte Reload
	callq	*_objc_release@GOTPCREL(%rip)
	movq	-208(%rbp), %rdi                ## 8-byte Reload
	callq	*_objc_release@GOTPCREL(%rip)
	movq	-40(%rbp), %rdi
	movq	_OBJC_SELECTOR_REFERENCES_.12(%rip), %rsi
	callq	*_objc_msgSend@GOTPCREL(%rip)
	movq	%rax, %rdi
	callq	_objc_retainAutoreleasedReturnValue
	movq	%rax, %rdi
	movq	%rdi, -152(%rbp)                ## 8-byte Spill
	movq	_OBJC_SELECTOR_REFERENCES_.10(%rip), %rsi
	callq	*_objc_msgSend@GOTPCREL(%rip)
	movq	%rax, %rdi
	callq	_objc_retainAutoreleasedReturnValue
	movq	%rax, -192(%rbp)                ## 8-byte Spill
	movq	%rax, -160(%rbp)                ## 8-byte Spill
	movq	%rax, -200(%rbp)                ## 8-byte Spill
	movq	-8(%rbp), %rdi
	movq	_OBJC_SELECTOR_REFERENCES_.2(%rip), %rsi
	callq	*_objc_msgSend@GOTPCREL(%rip)
	movq	%rax, %rdi
	callq	_objc_retainAutoreleasedReturnValue
	movq	%rax, %rdi
	movq	%rdi, -168(%rbp)                ## 8-byte Spill
	movq	_OBJC_SELECTOR_REFERENCES_.14(%rip), %rsi
	callq	*_objc_msgSend@GOTPCREL(%rip)
	movq	%rax, %rdi
	callq	_objc_retainAutoreleasedReturnValue
	movq	%rax, %rsi
	movq	%rsi, -176(%rbp)                ## 8-byte Spill
	leaq	L_.str(%rip), %rdi
	movb	$0, %al
	callq	__MASBoxValue
	movq	%rax, %rdi
	callq	_objc_retainAutoreleasedReturnValue
	movq	-200(%rbp), %rdi                ## 8-byte Reload
	movq	%rax, %rsi
	movq	-192(%rbp), %rax                ## 8-byte Reload
	movq	%rsi, -184(%rbp)                ## 8-byte Spill
	callq	*16(%rax)
	movq	%rax, %rdi
	callq	_objc_unsafeClaimAutoreleasedReturnValue
	movq	-184(%rbp), %rdi                ## 8-byte Reload
	callq	*_objc_release@GOTPCREL(%rip)
	movq	-176(%rbp), %rdi                ## 8-byte Reload
	callq	*_objc_release@GOTPCREL(%rip)
	movq	-168(%rbp), %rdi                ## 8-byte Reload
	callq	*_objc_release@GOTPCREL(%rip)
	movq	-160(%rbp), %rdi                ## 8-byte Reload
	callq	*_objc_release@GOTPCREL(%rip)
	movq	-152(%rbp), %rdi                ## 8-byte Reload
	callq	*_objc_release@GOTPCREL(%rip)
	movq	-40(%rbp), %rdi
	movq	_OBJC_SELECTOR_REFERENCES_.16(%rip), %rsi
	callq	*_objc_msgSend@GOTPCREL(%rip)
	movq	%rax, %rdi
	callq	_objc_retainAutoreleasedReturnValue
	movq	%rax, %rdi
	movq	%rdi, -112(%rbp)                ## 8-byte Spill
	movq	_OBJC_SELECTOR_REFERENCES_.10(%rip), %rsi
	callq	*_objc_msgSend@GOTPCREL(%rip)
	movq	%rax, %rdi
	callq	_objc_retainAutoreleasedReturnValue
	movq	%rax, -136(%rbp)                ## 8-byte Spill
	movsd	LCPI0_0(%rip), %xmm1            ## xmm1 = mem[0],zero
	movq	%rax, -120(%rbp)                ## 8-byte Spill
	movq	%rax, -144(%rbp)                ## 8-byte Spill
	movaps	%xmm1, %xmm0
	callq	_CGSizeMake
	movsd	%xmm0, -56(%rbp)
	movsd	%xmm1, -48(%rbp)
	movsd	-56(%rbp), %xmm0                ## xmm0 = mem[0],zero
	movsd	-48(%rbp), %xmm1                ## xmm1 = mem[0],zero
	leaq	L_.str.17(%rip), %rdi
	movb	$2, %al
	callq	__MASBoxValue
	movq	%rax, %rdi
	callq	_objc_retainAutoreleasedReturnValue
	movq	-144(%rbp), %rdi                ## 8-byte Reload
	movq	%rax, %rsi
	movq	-136(%rbp), %rax                ## 8-byte Reload
	movq	%rsi, -128(%rbp)                ## 8-byte Spill
	callq	*16(%rax)
	movq	%rax, %rdi
	callq	_objc_unsafeClaimAutoreleasedReturnValue
	movq	-128(%rbp), %rdi                ## 8-byte Reload
	callq	*_objc_release@GOTPCREL(%rip)
	movq	-120(%rbp), %rdi                ## 8-byte Reload
	callq	*_objc_release@GOTPCREL(%rip)
	movq	-112(%rbp), %rdi                ## 8-byte Reload
	callq	*_objc_release@GOTPCREL(%rip)
Ltmp3:
	.loc	8 50 5                          ## ccache-sample/ViewController.m:50:5
	movq	-40(%rbp), %rdi
	movq	_OBJC_SELECTOR_REFERENCES_.19(%rip), %rsi
	callq	*_objc_msgSend@GOTPCREL(%rip)
	movq	%rax, %rdi
	callq	_objc_unsafeClaimAutoreleasedReturnValue
	xorl	%eax, %eax
	movl	%eax, %esi
Ltmp4:
	.loc	8 50 5                          ## ccache-sample/ViewController.m:50:5
	leaq	-40(%rbp), %rdi
	callq	_objc_storeStrong
## %bb.2:
	.loc	8 56 5 is_stmt 1                ## ccache-sample/ViewController.m:56:5
	jmp	LBB0_3
LBB0_3:
Ltmp5:
	.loc	8 56 5 is_stmt 0                ## ccache-sample/ViewController.m:56:5
	movq	-8(%rbp), %rdi
	movq	_OBJC_SELECTOR_REFERENCES_.2(%rip), %rsi
	callq	*_objc_msgSend@GOTPCREL(%rip)
	movq	%rax, %rdi
	callq	_objc_retainAutoreleasedReturnValue
	movq	%rax, %rdi
	xorl	%edx, %edx
	movq	%rdi, -336(%rbp)                ## 8-byte Spill
	movq	_OBJC_SELECTOR_REFERENCES_.4(%rip), %rsi
	callq	*_objc_msgSend@GOTPCREL(%rip)
	movq	-336(%rbp), %rdi                ## 8-byte Reload
	callq	*_objc_release@GOTPCREL(%rip)
	movq	_OBJC_CLASSLIST_REFERENCES_$_(%rip), %rdi
	callq	_objc_alloc
	movq	%rax, -328(%rbp)                ## 8-byte Spill
	movq	-8(%rbp), %rdi
	movq	_OBJC_SELECTOR_REFERENCES_.2(%rip), %rsi
	callq	*_objc_msgSend@GOTPCREL(%rip)
	movq	%rax, %rdi
	callq	_objc_retainAutoreleasedReturnValue
	movq	-328(%rbp), %rdi                ## 8-byte Reload
	movq	%rax, %rdx
	movq	%rdx, -320(%rbp)                ## 8-byte Spill
	movq	_OBJC_SELECTOR_REFERENCES_.6(%rip), %rsi
	callq	*_objc_msgSend@GOTPCREL(%rip)
	movq	-320(%rbp), %rdi                ## 8-byte Reload
	movq	%rax, -64(%rbp)
	callq	*_objc_release@GOTPCREL(%rip)
	movq	-64(%rbp), %rdi
	movq	_OBJC_SELECTOR_REFERENCES_.21(%rip), %rsi
	movl	$1, %edx
	callq	*_objc_msgSend@GOTPCREL(%rip)
Ltmp6:
	.loc	8 56 5                          ## ccache-sample/ViewController.m:56:5
	movq	-64(%rbp), %rdi
	movq	_OBJC_SELECTOR_REFERENCES_.16(%rip), %rsi
	callq	*_objc_msgSend@GOTPCREL(%rip)
	movq	%rax, %rdi
	callq	_objc_retainAutoreleasedReturnValue
	movq	%rax, %rdi
	movq	%rdi, -280(%rbp)                ## 8-byte Spill
	movq	_OBJC_SELECTOR_REFERENCES_.10(%rip), %rsi
	callq	*_objc_msgSend@GOTPCREL(%rip)
	movq	%rax, %rdi
	callq	_objc_retainAutoreleasedReturnValue
	movq	%rax, -304(%rbp)                ## 8-byte Spill
	movsd	LCPI0_1(%rip), %xmm0            ## xmm0 = mem[0],zero
	movsd	LCPI0_2(%rip), %xmm1            ## xmm1 = mem[0],zero
	movq	%rax, -288(%rbp)                ## 8-byte Spill
	movq	%rax, -312(%rbp)                ## 8-byte Spill
	callq	_CGSizeMake
	movsd	%xmm0, -80(%rbp)
	movsd	%xmm1, -72(%rbp)
	movsd	-80(%rbp), %xmm0                ## xmm0 = mem[0],zero
	movsd	-72(%rbp), %xmm1                ## xmm1 = mem[0],zero
	leaq	L_.str.17(%rip), %rdi
	movb	$2, %al
	callq	__MASBoxValue
	movq	%rax, %rdi
	callq	_objc_retainAutoreleasedReturnValue
	movq	-312(%rbp), %rdi                ## 8-byte Reload
	movq	%rax, %rsi
	movq	-304(%rbp), %rax                ## 8-byte Reload
	movq	%rsi, -296(%rbp)                ## 8-byte Spill
	callq	*16(%rax)
	movq	%rax, %rdi
	callq	_objc_unsafeClaimAutoreleasedReturnValue
	movq	-296(%rbp), %rdi                ## 8-byte Reload
	callq	*_objc_release@GOTPCREL(%rip)
	movq	-288(%rbp), %rdi                ## 8-byte Reload
	callq	*_objc_release@GOTPCREL(%rip)
	movq	-280(%rbp), %rdi                ## 8-byte Reload
	callq	*_objc_release@GOTPCREL(%rip)
Ltmp7:
	.loc	8 56 5                          ## ccache-sample/ViewController.m:56:5
	movq	-64(%rbp), %rdi
	movq	_OBJC_SELECTOR_REFERENCES_.19(%rip), %rsi
	callq	*_objc_msgSend@GOTPCREL(%rip)
	movq	%rax, %rdi
	callq	_objc_unsafeClaimAutoreleasedReturnValue
	xorl	%eax, %eax
	movl	%eax, %esi
Ltmp8:
	.loc	8 56 5                          ## ccache-sample/ViewController.m:56:5
	leaq	-64(%rbp), %rdi
	callq	_objc_storeStrong
## %bb.4:
	.loc	8 60 5 is_stmt 1                ## ccache-sample/ViewController.m:60:5
	jmp	LBB0_5
LBB0_5:
Ltmp9:
	.loc	8 60 5 is_stmt 0                ## ccache-sample/ViewController.m:60:5
	movq	-8(%rbp), %rdi
	movq	_OBJC_SELECTOR_REFERENCES_.2(%rip), %rsi
	callq	*_objc_msgSend@GOTPCREL(%rip)
	movq	%rax, %rdi
	callq	_objc_retainAutoreleasedReturnValue
	movq	%rax, %rdi
	xorl	%edx, %edx
	movq	%rdi, -400(%rbp)                ## 8-byte Spill
	movq	_OBJC_SELECTOR_REFERENCES_.4(%rip), %rsi
	callq	*_objc_msgSend@GOTPCREL(%rip)
	movq	-400(%rbp), %rdi                ## 8-byte Reload
	callq	*_objc_release@GOTPCREL(%rip)
	movq	_OBJC_CLASSLIST_REFERENCES_$_(%rip), %rdi
	callq	_objc_alloc
	movq	%rax, -392(%rbp)                ## 8-byte Spill
	movq	-8(%rbp), %rdi
	movq	_OBJC_SELECTOR_REFERENCES_.2(%rip), %rsi
	callq	*_objc_msgSend@GOTPCREL(%rip)
	movq	%rax, %rdi
	callq	_objc_retainAutoreleasedReturnValue
	movq	-392(%rbp), %rdi                ## 8-byte Reload
	movq	%rax, %rdx
	movq	%rdx, -384(%rbp)                ## 8-byte Spill
	movq	_OBJC_SELECTOR_REFERENCES_.6(%rip), %rsi
	callq	*_objc_msgSend@GOTPCREL(%rip)
	movq	-384(%rbp), %rdi                ## 8-byte Reload
	movq	%rax, -88(%rbp)
	callq	*_objc_release@GOTPCREL(%rip)
	movq	-88(%rbp), %rdi
	movq	_OBJC_SELECTOR_REFERENCES_.23(%rip), %rsi
	movl	$1, %edx
	callq	*_objc_msgSend@GOTPCREL(%rip)
Ltmp10:
	.loc	8 60 5                          ## ccache-sample/ViewController.m:60:5
	movq	-88(%rbp), %rdi
	movq	_OBJC_SELECTOR_REFERENCES_.16(%rip), %rsi
	callq	*_objc_msgSend@GOTPCREL(%rip)
	movq	%rax, %rdi
	callq	_objc_retainAutoreleasedReturnValue
	movq	%rax, %rdi
	movq	%rdi, -344(%rbp)                ## 8-byte Spill
	movq	_OBJC_SELECTOR_REFERENCES_.10(%rip), %rsi
	callq	*_objc_msgSend@GOTPCREL(%rip)
	movq	%rax, %rdi
	callq	_objc_retainAutoreleasedReturnValue
	movq	%rax, -368(%rbp)                ## 8-byte Spill
	movsd	LCPI0_1(%rip), %xmm0            ## xmm0 = mem[0],zero
	movsd	LCPI0_2(%rip), %xmm1            ## xmm1 = mem[0],zero
	movq	%rax, -352(%rbp)                ## 8-byte Spill
	movq	%rax, -376(%rbp)                ## 8-byte Spill
	callq	_CGSizeMake
	movsd	%xmm0, -104(%rbp)
	movsd	%xmm1, -96(%rbp)
	movsd	-104(%rbp), %xmm0               ## xmm0 = mem[0],zero
	movsd	-96(%rbp), %xmm1                ## xmm1 = mem[0],zero
	leaq	L_.str.17(%rip), %rdi
	movb	$2, %al
	callq	__MASBoxValue
	movq	%rax, %rdi
	callq	_objc_retainAutoreleasedReturnValue
	movq	-376(%rbp), %rdi                ## 8-byte Reload
	movq	%rax, %rsi
	movq	-368(%rbp), %rax                ## 8-byte Reload
	movq	%rsi, -360(%rbp)                ## 8-byte Spill
	callq	*16(%rax)
	movq	%rax, %rdi
	callq	_objc_unsafeClaimAutoreleasedReturnValue
	movq	-360(%rbp), %rdi                ## 8-byte Reload
	callq	*_objc_release@GOTPCREL(%rip)
	movq	-352(%rbp), %rdi                ## 8-byte Reload
	callq	*_objc_release@GOTPCREL(%rip)
	movq	-344(%rbp), %rdi                ## 8-byte Reload
	callq	*_objc_release@GOTPCREL(%rip)
Ltmp11:
	.loc	8 60 5                          ## ccache-sample/ViewController.m:60:5
	movq	-88(%rbp), %rdi
	movq	_OBJC_SELECTOR_REFERENCES_.19(%rip), %rsi
	callq	*_objc_msgSend@GOTPCREL(%rip)
	movq	%rax, %rdi
	callq	_objc_unsafeClaimAutoreleasedReturnValue
	xorl	%eax, %eax
	movl	%eax, %esi
Ltmp12:
	.loc	8 60 5                          ## ccache-sample/ViewController.m:60:5
	leaq	-88(%rbp), %rdi
	callq	_objc_storeStrong
## %bb.6:
	.loc	8 63 1 is_stmt 1                ## ccache-sample/ViewController.m:63:1
	addq	$400, %rsp                      ## imm = 0x190
	popq	%rbp
	retq
Ltmp13:
Lfunc_end0:
	.cfi_endproc
                                        ## -- End function
	.p2align	4, 0x90                         ## -- Begin function _MASBoxValue
__MASBoxValue:                          ## @_MASBoxValue
Lfunc_begin1:
	.file	9 "/Users/king/WorkSpec/SourceCode/ccache/samples/ccache-sample" "Pods/Headers/Public/Masonry/MASUtilities.h"
	.loc	9 76 0                          ## Pods/Headers/Public/Masonry/MASUtilities.h:76:0
	.cfi_startproc
## %bb.0:
	pushq	%rbp
	.cfi_def_cfa_offset 16
	.cfi_offset %rbp, -16
	movq	%rsp, %rbp
	.cfi_def_cfa_register %rbp
	subq	$1008, %rsp                     ## imm = 0x3F0
	movaps	%xmm7, -576(%rbp)               ## 16-byte Spill
	movaps	%xmm6, -560(%rbp)               ## 16-byte Spill
	movaps	%xmm5, -544(%rbp)               ## 16-byte Spill
	movaps	%xmm4, -528(%rbp)               ## 16-byte Spill
	movaps	%xmm3, -512(%rbp)               ## 16-byte Spill
	movaps	%xmm2, -496(%rbp)               ## 16-byte Spill
	movaps	%xmm1, -480(%rbp)               ## 16-byte Spill
	movaps	%xmm0, -464(%rbp)               ## 16-byte Spill
	movq	%r9, -448(%rbp)                 ## 8-byte Spill
	movq	%r8, -440(%rbp)                 ## 8-byte Spill
	movq	%rcx, -432(%rbp)                ## 8-byte Spill
	movq	%rdx, -424(%rbp)                ## 8-byte Spill
	movq	%rsi, -416(%rbp)                ## 8-byte Spill
	movq	%rdi, -408(%rbp)                ## 8-byte Spill
	testb	%al, %al
	je	LBB1_102
## %bb.101:
	movaps	-576(%rbp), %xmm0               ## 16-byte Reload
	movaps	-560(%rbp), %xmm1               ## 16-byte Reload
	movaps	-544(%rbp), %xmm2               ## 16-byte Reload
	movaps	-528(%rbp), %xmm3               ## 16-byte Reload
	movaps	-512(%rbp), %xmm4               ## 16-byte Reload
	movaps	-496(%rbp), %xmm5               ## 16-byte Reload
	movaps	-480(%rbp), %xmm6               ## 16-byte Reload
	movaps	-464(%rbp), %xmm7               ## 16-byte Reload
	movaps	%xmm7, -352(%rbp)
	movaps	%xmm6, -336(%rbp)
	movaps	%xmm5, -320(%rbp)
	movaps	%xmm4, -304(%rbp)
	movaps	%xmm3, -288(%rbp)
	movaps	%xmm2, -272(%rbp)
	movaps	%xmm1, -256(%rbp)
	movaps	%xmm0, -240(%rbp)
LBB1_102:
	movq	-408(%rbp), %rcx                ## 8-byte Reload
	movq	-416(%rbp), %rax                ## 8-byte Reload
	movq	-424(%rbp), %rdx                ## 8-byte Reload
	movq	-432(%rbp), %rsi                ## 8-byte Reload
	movq	-440(%rbp), %rdi                ## 8-byte Reload
	movq	-448(%rbp), %r8                 ## 8-byte Reload
	movq	%r8, -360(%rbp)
	movq	%rdi, -368(%rbp)
	movq	%rsi, -376(%rbp)
	movq	%rdx, -384(%rbp)
	movq	%rax, -392(%rbp)
	leaq	-32(%rbp), %rax
	movq	___stack_chk_guard@GOTPCREL(%rip), %rdx
	movq	(%rdx), %rdx
	movq	%rdx, -8(%rbp)
	movq	%rcx, -40(%rbp)
Ltmp14:
	##DEBUG_VALUE: _MASBoxValue:v <- [$rax+0]
	leaq	-400(%rbp), %rcx
Ltmp15:
	.loc	9 78 5 prologue_end             ## Pods/Headers/Public/Masonry/MASUtilities.h:78:5
	movq	%rcx, 16(%rax)
	leaq	16(%rbp), %rcx
	movq	%rcx, 8(%rax)
	movl	$48, 4(%rax)
	movl	$8, (%rax)
	.loc	9 79 8                          ## Pods/Headers/Public/Masonry/MASUtilities.h:79:8
	movq	$0, -48(%rbp)
Ltmp16:
	.loc	9 80 16                         ## Pods/Headers/Public/Masonry/MASUtilities.h:80:16
	movq	-40(%rbp), %rdi
	.loc	9 80 9 is_stmt 0                ## Pods/Headers/Public/Masonry/MASUtilities.h:80:9
	leaq	L_.str(%rip), %rsi
	callq	_strcmp
Ltmp17:
	.loc	9 80 35                         ## Pods/Headers/Public/Masonry/MASUtilities.h:80:35
	cmpl	$0, %eax
Ltmp18:
	.loc	9 80 9                          ## Pods/Headers/Public/Masonry/MASUtilities.h:80:9
	jne	LBB1_5
## %bb.1:
	.loc	9 0 9                           ## Pods/Headers/Public/Masonry/MASUtilities.h:0:9
	leaq	-32(%rbp), %rax
	movq	%rax, -592(%rbp)                ## 8-byte Spill
Ltmp19:
	.loc	9 81 21 is_stmt 1               ## Pods/Headers/Public/Masonry/MASUtilities.h:81:21
	movl	-32(%rbp), %eax
	movl	%eax, -580(%rbp)                ## 4-byte Spill
	cmpl	$40, %eax
	ja	LBB1_3
## %bb.2:
	.loc	9 0 21 is_stmt 0                ## Pods/Headers/Public/Masonry/MASUtilities.h:0:21
	movq	-592(%rbp), %rcx                ## 8-byte Reload
	movl	-580(%rbp), %edx                ## 4-byte Reload
	.loc	9 81 21                         ## Pods/Headers/Public/Masonry/MASUtilities.h:81:21
	movslq	%edx, %rax
	addq	16(%rcx), %rax
	addl	$8, %edx
	movl	%edx, (%rcx)
	movq	%rax, -600(%rbp)                ## 8-byte Spill
	jmp	LBB1_4
LBB1_3:
	.loc	9 0 21                          ## Pods/Headers/Public/Masonry/MASUtilities.h:0:21
	movq	-592(%rbp), %rcx                ## 8-byte Reload
	.loc	9 81 21                         ## Pods/Headers/Public/Masonry/MASUtilities.h:81:21
	movq	8(%rcx), %rdx
	movq	%rdx, %rax
	addq	$8, %rdx
	movq	%rdx, 8(%rcx)
	movq	%rax, -600(%rbp)                ## 8-byte Spill
LBB1_4:
	.loc	9 0 21                          ## Pods/Headers/Public/Masonry/MASUtilities.h:0:21
	movq	-600(%rbp), %rax                ## 8-byte Reload
	.loc	9 81 21                         ## Pods/Headers/Public/Masonry/MASUtilities.h:81:21
	movq	(%rax), %rdi
	.loc	9 81 12                         ## Pods/Headers/Public/Masonry/MASUtilities.h:81:12
	callq	*_objc_retain@GOTPCREL(%rip)
	movq	%rax, -56(%rbp)
	.loc	9 82 13 is_stmt 1               ## Pods/Headers/Public/Masonry/MASUtilities.h:82:13
	movq	-56(%rbp), %rsi
	leaq	-48(%rbp), %rdi
	callq	_objc_storeStrong
	xorl	%eax, %eax
	movl	%eax, %esi
Ltmp20:
	.loc	9 83 5                          ## Pods/Headers/Public/Masonry/MASUtilities.h:83:5
	leaq	-56(%rbp), %rdi
	callq	_objc_storeStrong
Ltmp21:
	.loc	9 83 5 is_stmt 0                ## Pods/Headers/Public/Masonry/MASUtilities.h:83:5
	jmp	LBB1_98
Ltmp22:
LBB1_5:
	.loc	9 83 23                         ## Pods/Headers/Public/Masonry/MASUtilities.h:83:23
	movq	-40(%rbp), %rdi
	.loc	9 83 16                         ## Pods/Headers/Public/Masonry/MASUtilities.h:83:16
	leaq	L_.str.24(%rip), %rsi
	callq	_strcmp
	.loc	9 83 47                         ## Pods/Headers/Public/Masonry/MASUtilities.h:83:47
	cmpl	$0, %eax
Ltmp23:
	.loc	9 83 16                         ## Pods/Headers/Public/Masonry/MASUtilities.h:83:16
	jne	LBB1_10
## %bb.6:
	.loc	9 0 16                          ## Pods/Headers/Public/Masonry/MASUtilities.h:0:16
	leaq	-32(%rbp), %rax
	movq	%rax, -624(%rbp)                ## 8-byte Spill
Ltmp24:
	.loc	9 84 35 is_stmt 1               ## Pods/Headers/Public/Masonry/MASUtilities.h:84:35
	addq	$4, %rax
	movq	%rax, -616(%rbp)                ## 8-byte Spill
	movl	-28(%rbp), %eax
	movl	%eax, -604(%rbp)                ## 4-byte Spill
	cmpl	$144, %eax
	ja	LBB1_8
## %bb.7:
	.loc	9 0 35 is_stmt 0                ## Pods/Headers/Public/Masonry/MASUtilities.h:0:35
	movq	-616(%rbp), %rcx                ## 8-byte Reload
	movl	-604(%rbp), %edx                ## 4-byte Reload
	movq	-624(%rbp), %rax                ## 8-byte Reload
	.loc	9 84 35                         ## Pods/Headers/Public/Masonry/MASUtilities.h:84:35
	movq	16(%rax), %rsi
	leaq	-88(%rbp), %rax
	movslq	%edx, %rdi
	movsd	(%rsi,%rdi), %xmm0              ## xmm0 = mem[0],zero
	movslq	%edx, %rdi
	movsd	%xmm0, -88(%rbp)
	movslq	%edx, %rdi
	movsd	16(%rsi,%rdi), %xmm0            ## xmm0 = mem[0],zero
	movslq	%edx, %rsi
	movsd	%xmm0, -80(%rbp)
	addl	$32, %edx
	movl	%edx, (%rcx)
	movq	%rax, -632(%rbp)                ## 8-byte Spill
	jmp	LBB1_9
LBB1_8:
	.loc	9 0 35                          ## Pods/Headers/Public/Masonry/MASUtilities.h:0:35
	movq	-624(%rbp), %rcx                ## 8-byte Reload
	.loc	9 84 35                         ## Pods/Headers/Public/Masonry/MASUtilities.h:84:35
	movq	8(%rcx), %rdx
	movq	%rdx, %rax
	addq	$16, %rdx
	movq	%rdx, 8(%rcx)
	movq	%rax, -632(%rbp)                ## 8-byte Spill
LBB1_9:
	.loc	9 0 35                          ## Pods/Headers/Public/Masonry/MASUtilities.h:0:35
	movq	-632(%rbp), %rax                ## 8-byte Reload
	.loc	9 84 35                         ## Pods/Headers/Public/Masonry/MASUtilities.h:84:35
	movq	(%rax), %rcx
	movq	%rcx, -72(%rbp)
	movq	8(%rax), %rax
	movq	%rax, -64(%rbp)
	.loc	9 85 15 is_stmt 1               ## Pods/Headers/Public/Masonry/MASUtilities.h:85:15
	movq	_OBJC_CLASSLIST_REFERENCES_$_.25(%rip), %rdi
	.loc	9 85 30 is_stmt 0               ## Pods/Headers/Public/Masonry/MASUtilities.h:85:30
	leaq	-72(%rbp), %rdx
	.loc	9 85 51                         ## Pods/Headers/Public/Masonry/MASUtilities.h:85:51
	movq	-40(%rbp), %rcx
	.loc	9 85 15                         ## Pods/Headers/Public/Masonry/MASUtilities.h:85:15
	movq	_OBJC_SELECTOR_REFERENCES_.27(%rip), %rsi
	callq	*_objc_msgSend@GOTPCREL(%rip)
	movq	%rax, %rdi
	.loc	9 85 13                         ## Pods/Headers/Public/Masonry/MASUtilities.h:85:13
	callq	_objc_retainAutoreleasedReturnValue
	movq	-48(%rbp), %rdi
	movq	%rax, -48(%rbp)
	callq	*_objc_release@GOTPCREL(%rip)
	.loc	9 86 5 is_stmt 1                ## Pods/Headers/Public/Masonry/MASUtilities.h:86:5
	jmp	LBB1_97
Ltmp25:
LBB1_10:
	.loc	9 86 23 is_stmt 0               ## Pods/Headers/Public/Masonry/MASUtilities.h:86:23
	movq	-40(%rbp), %rdi
	.loc	9 86 16                         ## Pods/Headers/Public/Masonry/MASUtilities.h:86:16
	leaq	L_.str.17(%rip), %rsi
	callq	_strcmp
	.loc	9 86 46                         ## Pods/Headers/Public/Masonry/MASUtilities.h:86:46
	cmpl	$0, %eax
Ltmp26:
	.loc	9 86 16                         ## Pods/Headers/Public/Masonry/MASUtilities.h:86:16
	jne	LBB1_15
## %bb.11:
	.loc	9 0 16                          ## Pods/Headers/Public/Masonry/MASUtilities.h:0:16
	leaq	-32(%rbp), %rax
	movq	%rax, -656(%rbp)                ## 8-byte Spill
Ltmp27:
	.loc	9 87 33 is_stmt 1               ## Pods/Headers/Public/Masonry/MASUtilities.h:87:33
	addq	$4, %rax
	movq	%rax, -648(%rbp)                ## 8-byte Spill
	movl	-28(%rbp), %eax
	movl	%eax, -636(%rbp)                ## 4-byte Spill
	cmpl	$144, %eax
	ja	LBB1_13
## %bb.12:
	.loc	9 0 33 is_stmt 0                ## Pods/Headers/Public/Masonry/MASUtilities.h:0:33
	movq	-648(%rbp), %rcx                ## 8-byte Reload
	movl	-636(%rbp), %edx                ## 4-byte Reload
	movq	-656(%rbp), %rax                ## 8-byte Reload
	.loc	9 87 33                         ## Pods/Headers/Public/Masonry/MASUtilities.h:87:33
	movq	16(%rax), %rsi
	leaq	-120(%rbp), %rax
	movslq	%edx, %rdi
	movsd	(%rsi,%rdi), %xmm0              ## xmm0 = mem[0],zero
	movslq	%edx, %rdi
	movsd	%xmm0, -120(%rbp)
	movslq	%edx, %rdi
	movsd	16(%rsi,%rdi), %xmm0            ## xmm0 = mem[0],zero
	movslq	%edx, %rsi
	movsd	%xmm0, -112(%rbp)
	addl	$32, %edx
	movl	%edx, (%rcx)
	movq	%rax, -664(%rbp)                ## 8-byte Spill
	jmp	LBB1_14
LBB1_13:
	.loc	9 0 33                          ## Pods/Headers/Public/Masonry/MASUtilities.h:0:33
	movq	-656(%rbp), %rcx                ## 8-byte Reload
	.loc	9 87 33                         ## Pods/Headers/Public/Masonry/MASUtilities.h:87:33
	movq	8(%rcx), %rdx
	movq	%rdx, %rax
	addq	$16, %rdx
	movq	%rdx, 8(%rcx)
	movq	%rax, -664(%rbp)                ## 8-byte Spill
LBB1_14:
	.loc	9 0 33                          ## Pods/Headers/Public/Masonry/MASUtilities.h:0:33
	movq	-664(%rbp), %rax                ## 8-byte Reload
	.loc	9 87 33                         ## Pods/Headers/Public/Masonry/MASUtilities.h:87:33
	movq	(%rax), %rcx
	movq	%rcx, -104(%rbp)
	movq	8(%rax), %rax
	movq	%rax, -96(%rbp)
	.loc	9 88 15 is_stmt 1               ## Pods/Headers/Public/Masonry/MASUtilities.h:88:15
	movq	_OBJC_CLASSLIST_REFERENCES_$_.25(%rip), %rdi
	.loc	9 88 30 is_stmt 0               ## Pods/Headers/Public/Masonry/MASUtilities.h:88:30
	leaq	-104(%rbp), %rdx
	.loc	9 88 51                         ## Pods/Headers/Public/Masonry/MASUtilities.h:88:51
	movq	-40(%rbp), %rcx
	.loc	9 88 15                         ## Pods/Headers/Public/Masonry/MASUtilities.h:88:15
	movq	_OBJC_SELECTOR_REFERENCES_.27(%rip), %rsi
	callq	*_objc_msgSend@GOTPCREL(%rip)
	movq	%rax, %rdi
	.loc	9 88 13                         ## Pods/Headers/Public/Masonry/MASUtilities.h:88:13
	callq	_objc_retainAutoreleasedReturnValue
	movq	-48(%rbp), %rdi
	movq	%rax, -48(%rbp)
	callq	*_objc_release@GOTPCREL(%rip)
	.loc	9 89 5 is_stmt 1                ## Pods/Headers/Public/Masonry/MASUtilities.h:89:5
	jmp	LBB1_96
Ltmp28:
LBB1_15:
	.loc	9 89 23 is_stmt 0               ## Pods/Headers/Public/Masonry/MASUtilities.h:89:23
	movq	-40(%rbp), %rdi
	.loc	9 89 16                         ## Pods/Headers/Public/Masonry/MASUtilities.h:89:16
	leaq	L_.str.28(%rip), %rsi
	callq	_strcmp
	.loc	9 89 53                         ## Pods/Headers/Public/Masonry/MASUtilities.h:89:53
	cmpl	$0, %eax
Ltmp29:
	.loc	9 89 16                         ## Pods/Headers/Public/Masonry/MASUtilities.h:89:16
	jne	LBB1_17
## %bb.16:
Ltmp30:
	.loc	9 90 47 is_stmt 1               ## Pods/Headers/Public/Masonry/MASUtilities.h:90:47
	movq	-24(%rbp), %rax
	movq	%rax, %rcx
	addq	$32, %rcx
	movq	%rcx, -24(%rbp)
	movq	(%rax), %rcx
	movq	%rcx, -152(%rbp)
	movq	8(%rax), %rcx
	movq	%rcx, -144(%rbp)
	movq	16(%rax), %rcx
	movq	%rcx, -136(%rbp)
	movq	24(%rax), %rax
	movq	%rax, -128(%rbp)
	.loc	9 91 15                         ## Pods/Headers/Public/Masonry/MASUtilities.h:91:15
	movq	_OBJC_CLASSLIST_REFERENCES_$_.25(%rip), %rdi
	.loc	9 91 30 is_stmt 0               ## Pods/Headers/Public/Masonry/MASUtilities.h:91:30
	leaq	-152(%rbp), %rdx
	.loc	9 91 51                         ## Pods/Headers/Public/Masonry/MASUtilities.h:91:51
	movq	-40(%rbp), %rcx
	.loc	9 91 15                         ## Pods/Headers/Public/Masonry/MASUtilities.h:91:15
	movq	_OBJC_SELECTOR_REFERENCES_.27(%rip), %rsi
	callq	*_objc_msgSend@GOTPCREL(%rip)
	movq	%rax, %rdi
	.loc	9 91 13                         ## Pods/Headers/Public/Masonry/MASUtilities.h:91:13
	callq	_objc_retainAutoreleasedReturnValue
	movq	-48(%rbp), %rdi
	movq	%rax, -48(%rbp)
	callq	*_objc_release@GOTPCREL(%rip)
	.loc	9 92 5 is_stmt 1                ## Pods/Headers/Public/Masonry/MASUtilities.h:92:5
	jmp	LBB1_95
Ltmp31:
LBB1_17:
	.loc	9 92 23 is_stmt 0               ## Pods/Headers/Public/Masonry/MASUtilities.h:92:23
	movq	-40(%rbp), %rdi
	.loc	9 92 16                         ## Pods/Headers/Public/Masonry/MASUtilities.h:92:16
	leaq	L_.str.29(%rip), %rsi
	callq	_strcmp
	.loc	9 92 46                         ## Pods/Headers/Public/Masonry/MASUtilities.h:92:46
	cmpl	$0, %eax
Ltmp32:
	.loc	9 92 16                         ## Pods/Headers/Public/Masonry/MASUtilities.h:92:16
	jne	LBB1_22
## %bb.18:
	.loc	9 0 16                          ## Pods/Headers/Public/Masonry/MASUtilities.h:0:16
	leaq	-32(%rbp), %rax
	movq	%rax, -688(%rbp)                ## 8-byte Spill
Ltmp33:
	.loc	9 93 33 is_stmt 1               ## Pods/Headers/Public/Masonry/MASUtilities.h:93:33
	addq	$4, %rax
	movq	%rax, -680(%rbp)                ## 8-byte Spill
	movl	-28(%rbp), %eax
	movl	%eax, -668(%rbp)                ## 4-byte Spill
	cmpl	$160, %eax
	ja	LBB1_20
## %bb.19:
	.loc	9 0 33 is_stmt 0                ## Pods/Headers/Public/Masonry/MASUtilities.h:0:33
	movq	-680(%rbp), %rcx                ## 8-byte Reload
	movl	-668(%rbp), %edx                ## 4-byte Reload
	movq	-688(%rbp), %rsi                ## 8-byte Reload
	.loc	9 93 33                         ## Pods/Headers/Public/Masonry/MASUtilities.h:93:33
	movslq	%edx, %rax
	addq	16(%rsi), %rax
	addl	$16, %edx
	movl	%edx, (%rcx)
	movq	%rax, -696(%rbp)                ## 8-byte Spill
	jmp	LBB1_21
LBB1_20:
	.loc	9 0 33                          ## Pods/Headers/Public/Masonry/MASUtilities.h:0:33
	movq	-688(%rbp), %rcx                ## 8-byte Reload
	.loc	9 93 33                         ## Pods/Headers/Public/Masonry/MASUtilities.h:93:33
	movq	8(%rcx), %rdx
	movq	%rdx, %rax
	addq	$8, %rdx
	movq	%rdx, 8(%rcx)
	movq	%rax, -696(%rbp)                ## 8-byte Spill
LBB1_21:
	.loc	9 0 33                          ## Pods/Headers/Public/Masonry/MASUtilities.h:0:33
	movq	-696(%rbp), %rax                ## 8-byte Reload
	.loc	9 93 33                         ## Pods/Headers/Public/Masonry/MASUtilities.h:93:33
	movsd	(%rax), %xmm0                   ## xmm0 = mem[0],zero
	.loc	9 93 16                         ## Pods/Headers/Public/Masonry/MASUtilities.h:93:16
	movsd	%xmm0, -160(%rbp)
	.loc	9 94 15 is_stmt 1               ## Pods/Headers/Public/Masonry/MASUtilities.h:94:15
	movq	_OBJC_CLASSLIST_REFERENCES_$_.30(%rip), %rdi
	.loc	9 94 42 is_stmt 0               ## Pods/Headers/Public/Masonry/MASUtilities.h:94:42
	movsd	-160(%rbp), %xmm0               ## xmm0 = mem[0],zero
	.loc	9 94 15                         ## Pods/Headers/Public/Masonry/MASUtilities.h:94:15
	movq	_OBJC_SELECTOR_REFERENCES_.32(%rip), %rsi
	callq	*_objc_msgSend@GOTPCREL(%rip)
	movq	%rax, %rdi
	.loc	9 94 13                         ## Pods/Headers/Public/Masonry/MASUtilities.h:94:13
	callq	_objc_retainAutoreleasedReturnValue
	movq	-48(%rbp), %rdi
	movq	%rax, -48(%rbp)
	callq	*_objc_release@GOTPCREL(%rip)
	.loc	9 95 5 is_stmt 1                ## Pods/Headers/Public/Masonry/MASUtilities.h:95:5
	jmp	LBB1_94
Ltmp34:
LBB1_22:
	.loc	9 95 23 is_stmt 0               ## Pods/Headers/Public/Masonry/MASUtilities.h:95:23
	movq	-40(%rbp), %rdi
	.loc	9 95 16                         ## Pods/Headers/Public/Masonry/MASUtilities.h:95:16
	leaq	L_.str.33(%rip), %rsi
	callq	_strcmp
	.loc	9 95 45                         ## Pods/Headers/Public/Masonry/MASUtilities.h:95:45
	cmpl	$0, %eax
Ltmp35:
	.loc	9 95 16                         ## Pods/Headers/Public/Masonry/MASUtilities.h:95:16
	jne	LBB1_27
## %bb.23:
	.loc	9 0 16                          ## Pods/Headers/Public/Masonry/MASUtilities.h:0:16
	leaq	-32(%rbp), %rax
	movq	%rax, -720(%rbp)                ## 8-byte Spill
Ltmp36:
	.loc	9 96 31 is_stmt 1               ## Pods/Headers/Public/Masonry/MASUtilities.h:96:31
	addq	$4, %rax
	movq	%rax, -712(%rbp)                ## 8-byte Spill
	movl	-28(%rbp), %eax
	movl	%eax, -700(%rbp)                ## 4-byte Spill
	cmpl	$160, %eax
	ja	LBB1_25
## %bb.24:
	.loc	9 0 31 is_stmt 0                ## Pods/Headers/Public/Masonry/MASUtilities.h:0:31
	movq	-712(%rbp), %rcx                ## 8-byte Reload
	movl	-700(%rbp), %edx                ## 4-byte Reload
	movq	-720(%rbp), %rsi                ## 8-byte Reload
	.loc	9 96 31                         ## Pods/Headers/Public/Masonry/MASUtilities.h:96:31
	movslq	%edx, %rax
	addq	16(%rsi), %rax
	addl	$16, %edx
	movl	%edx, (%rcx)
	movq	%rax, -728(%rbp)                ## 8-byte Spill
	jmp	LBB1_26
LBB1_25:
	.loc	9 0 31                          ## Pods/Headers/Public/Masonry/MASUtilities.h:0:31
	movq	-720(%rbp), %rcx                ## 8-byte Reload
	.loc	9 96 31                         ## Pods/Headers/Public/Masonry/MASUtilities.h:96:31
	movq	8(%rcx), %rdx
	movq	%rdx, %rax
	addq	$8, %rdx
	movq	%rdx, 8(%rcx)
	movq	%rax, -728(%rbp)                ## 8-byte Spill
LBB1_26:
	.loc	9 0 31                          ## Pods/Headers/Public/Masonry/MASUtilities.h:0:31
	movq	-728(%rbp), %rax                ## 8-byte Reload
	.loc	9 96 31                         ## Pods/Headers/Public/Masonry/MASUtilities.h:96:31
	movsd	(%rax), %xmm0                   ## xmm0 = mem[0],zero
	.loc	9 96 24                         ## Pods/Headers/Public/Masonry/MASUtilities.h:96:24
	cvtsd2ss	%xmm0, %xmm0
	.loc	9 96 15                         ## Pods/Headers/Public/Masonry/MASUtilities.h:96:15
	movss	%xmm0, -164(%rbp)
	.loc	9 97 15 is_stmt 1               ## Pods/Headers/Public/Masonry/MASUtilities.h:97:15
	movq	_OBJC_CLASSLIST_REFERENCES_$_.30(%rip), %rdi
	.loc	9 97 41 is_stmt 0               ## Pods/Headers/Public/Masonry/MASUtilities.h:97:41
	movss	-164(%rbp), %xmm0               ## xmm0 = mem[0],zero,zero,zero
	.loc	9 97 15                         ## Pods/Headers/Public/Masonry/MASUtilities.h:97:15
	movq	_OBJC_SELECTOR_REFERENCES_.35(%rip), %rsi
	callq	*_objc_msgSend@GOTPCREL(%rip)
	movq	%rax, %rdi
	.loc	9 97 13                         ## Pods/Headers/Public/Masonry/MASUtilities.h:97:13
	callq	_objc_retainAutoreleasedReturnValue
	movq	-48(%rbp), %rdi
	movq	%rax, -48(%rbp)
	callq	*_objc_release@GOTPCREL(%rip)
	.loc	9 98 5 is_stmt 1                ## Pods/Headers/Public/Masonry/MASUtilities.h:98:5
	jmp	LBB1_93
Ltmp37:
LBB1_27:
	.loc	9 98 23 is_stmt 0               ## Pods/Headers/Public/Masonry/MASUtilities.h:98:23
	movq	-40(%rbp), %rdi
	.loc	9 98 16                         ## Pods/Headers/Public/Masonry/MASUtilities.h:98:16
	leaq	L_.str.36(%rip), %rsi
	callq	_strcmp
	.loc	9 98 43                         ## Pods/Headers/Public/Masonry/MASUtilities.h:98:43
	cmpl	$0, %eax
Ltmp38:
	.loc	9 98 16                         ## Pods/Headers/Public/Masonry/MASUtilities.h:98:16
	jne	LBB1_32
## %bb.28:
	.loc	9 0 16                          ## Pods/Headers/Public/Masonry/MASUtilities.h:0:16
	leaq	-32(%rbp), %rax
	movq	%rax, -744(%rbp)                ## 8-byte Spill
Ltmp39:
	.loc	9 99 27 is_stmt 1               ## Pods/Headers/Public/Masonry/MASUtilities.h:99:27
	movl	-32(%rbp), %eax
	movl	%eax, -732(%rbp)                ## 4-byte Spill
	cmpl	$40, %eax
	ja	LBB1_30
## %bb.29:
	.loc	9 0 27 is_stmt 0                ## Pods/Headers/Public/Masonry/MASUtilities.h:0:27
	movq	-744(%rbp), %rcx                ## 8-byte Reload
	movl	-732(%rbp), %edx                ## 4-byte Reload
	.loc	9 99 27                         ## Pods/Headers/Public/Masonry/MASUtilities.h:99:27
	movslq	%edx, %rax
	addq	16(%rcx), %rax
	addl	$8, %edx
	movl	%edx, (%rcx)
	movq	%rax, -752(%rbp)                ## 8-byte Spill
	jmp	LBB1_31
LBB1_30:
	.loc	9 0 27                          ## Pods/Headers/Public/Masonry/MASUtilities.h:0:27
	movq	-744(%rbp), %rcx                ## 8-byte Reload
	.loc	9 99 27                         ## Pods/Headers/Public/Masonry/MASUtilities.h:99:27
	movq	8(%rcx), %rdx
	movq	%rdx, %rax
	addq	$8, %rdx
	movq	%rdx, 8(%rcx)
	movq	%rax, -752(%rbp)                ## 8-byte Spill
LBB1_31:
	.loc	9 0 27                          ## Pods/Headers/Public/Masonry/MASUtilities.h:0:27
	movq	-752(%rbp), %rax                ## 8-byte Reload
	.loc	9 99 27                         ## Pods/Headers/Public/Masonry/MASUtilities.h:99:27
	movl	(%rax), %eax
	.loc	9 99 13                         ## Pods/Headers/Public/Masonry/MASUtilities.h:99:13
	movl	%eax, -168(%rbp)
	.loc	9 100 15 is_stmt 1              ## Pods/Headers/Public/Masonry/MASUtilities.h:100:15
	movq	_OBJC_CLASSLIST_REFERENCES_$_.30(%rip), %rdi
	.loc	9 100 39 is_stmt 0              ## Pods/Headers/Public/Masonry/MASUtilities.h:100:39
	movl	-168(%rbp), %edx
	.loc	9 100 15                        ## Pods/Headers/Public/Masonry/MASUtilities.h:100:15
	movq	_OBJC_SELECTOR_REFERENCES_.38(%rip), %rsi
	callq	*_objc_msgSend@GOTPCREL(%rip)
	movq	%rax, %rdi
	.loc	9 100 13                        ## Pods/Headers/Public/Masonry/MASUtilities.h:100:13
	callq	_objc_retainAutoreleasedReturnValue
	movq	-48(%rbp), %rdi
	movq	%rax, -48(%rbp)
	callq	*_objc_release@GOTPCREL(%rip)
	.loc	9 101 5 is_stmt 1               ## Pods/Headers/Public/Masonry/MASUtilities.h:101:5
	jmp	LBB1_92
Ltmp40:
LBB1_32:
	.loc	9 101 23 is_stmt 0              ## Pods/Headers/Public/Masonry/MASUtilities.h:101:23
	movq	-40(%rbp), %rdi
	.loc	9 101 16                        ## Pods/Headers/Public/Masonry/MASUtilities.h:101:16
	leaq	L_.str.39(%rip), %rsi
	callq	_strcmp
	.loc	9 101 44                        ## Pods/Headers/Public/Masonry/MASUtilities.h:101:44
	cmpl	$0, %eax
Ltmp41:
	.loc	9 101 16                        ## Pods/Headers/Public/Masonry/MASUtilities.h:101:16
	jne	LBB1_37
## %bb.33:
	.loc	9 0 16                          ## Pods/Headers/Public/Masonry/MASUtilities.h:0:16
	leaq	-32(%rbp), %rax
	movq	%rax, -768(%rbp)                ## 8-byte Spill
Ltmp42:
	.loc	9 102 29 is_stmt 1              ## Pods/Headers/Public/Masonry/MASUtilities.h:102:29
	movl	-32(%rbp), %eax
	movl	%eax, -756(%rbp)                ## 4-byte Spill
	cmpl	$40, %eax
	ja	LBB1_35
## %bb.34:
	.loc	9 0 29 is_stmt 0                ## Pods/Headers/Public/Masonry/MASUtilities.h:0:29
	movq	-768(%rbp), %rcx                ## 8-byte Reload
	movl	-756(%rbp), %edx                ## 4-byte Reload
	.loc	9 102 29                        ## Pods/Headers/Public/Masonry/MASUtilities.h:102:29
	movslq	%edx, %rax
	addq	16(%rcx), %rax
	addl	$8, %edx
	movl	%edx, (%rcx)
	movq	%rax, -776(%rbp)                ## 8-byte Spill
	jmp	LBB1_36
LBB1_35:
	.loc	9 0 29                          ## Pods/Headers/Public/Masonry/MASUtilities.h:0:29
	movq	-768(%rbp), %rcx                ## 8-byte Reload
	.loc	9 102 29                        ## Pods/Headers/Public/Masonry/MASUtilities.h:102:29
	movq	8(%rcx), %rdx
	movq	%rdx, %rax
	addq	$8, %rdx
	movq	%rdx, 8(%rcx)
	movq	%rax, -776(%rbp)                ## 8-byte Spill
LBB1_36:
	.loc	9 0 29                          ## Pods/Headers/Public/Masonry/MASUtilities.h:0:29
	movq	-776(%rbp), %rax                ## 8-byte Reload
	.loc	9 102 29                        ## Pods/Headers/Public/Masonry/MASUtilities.h:102:29
	movq	(%rax), %rax
	.loc	9 102 14                        ## Pods/Headers/Public/Masonry/MASUtilities.h:102:14
	movq	%rax, -176(%rbp)
	.loc	9 103 15 is_stmt 1              ## Pods/Headers/Public/Masonry/MASUtilities.h:103:15
	movq	_OBJC_CLASSLIST_REFERENCES_$_.30(%rip), %rdi
	.loc	9 103 40 is_stmt 0              ## Pods/Headers/Public/Masonry/MASUtilities.h:103:40
	movq	-176(%rbp), %rdx
	.loc	9 103 15                        ## Pods/Headers/Public/Masonry/MASUtilities.h:103:15
	movq	_OBJC_SELECTOR_REFERENCES_.41(%rip), %rsi
	callq	*_objc_msgSend@GOTPCREL(%rip)
	movq	%rax, %rdi
	.loc	9 103 13                        ## Pods/Headers/Public/Masonry/MASUtilities.h:103:13
	callq	_objc_retainAutoreleasedReturnValue
	movq	-48(%rbp), %rdi
	movq	%rax, -48(%rbp)
	callq	*_objc_release@GOTPCREL(%rip)
	.loc	9 104 5 is_stmt 1               ## Pods/Headers/Public/Masonry/MASUtilities.h:104:5
	jmp	LBB1_91
Ltmp43:
LBB1_37:
	.loc	9 104 23 is_stmt 0              ## Pods/Headers/Public/Masonry/MASUtilities.h:104:23
	movq	-40(%rbp), %rdi
	.loc	9 104 16                        ## Pods/Headers/Public/Masonry/MASUtilities.h:104:16
	leaq	L_.str.39(%rip), %rsi
	callq	_strcmp
	.loc	9 104 49                        ## Pods/Headers/Public/Masonry/MASUtilities.h:104:49
	cmpl	$0, %eax
Ltmp44:
	.loc	9 104 16                        ## Pods/Headers/Public/Masonry/MASUtilities.h:104:16
	jne	LBB1_42
## %bb.38:
	.loc	9 0 16                          ## Pods/Headers/Public/Masonry/MASUtilities.h:0:16
	leaq	-32(%rbp), %rax
	movq	%rax, -792(%rbp)                ## 8-byte Spill
Ltmp45:
	.loc	9 105 39 is_stmt 1              ## Pods/Headers/Public/Masonry/MASUtilities.h:105:39
	movl	-32(%rbp), %eax
	movl	%eax, -780(%rbp)                ## 4-byte Spill
	cmpl	$40, %eax
	ja	LBB1_40
## %bb.39:
	.loc	9 0 39 is_stmt 0                ## Pods/Headers/Public/Masonry/MASUtilities.h:0:39
	movq	-792(%rbp), %rcx                ## 8-byte Reload
	movl	-780(%rbp), %edx                ## 4-byte Reload
	.loc	9 105 39                        ## Pods/Headers/Public/Masonry/MASUtilities.h:105:39
	movslq	%edx, %rax
	addq	16(%rcx), %rax
	addl	$8, %edx
	movl	%edx, (%rcx)
	movq	%rax, -800(%rbp)                ## 8-byte Spill
	jmp	LBB1_41
LBB1_40:
	.loc	9 0 39                          ## Pods/Headers/Public/Masonry/MASUtilities.h:0:39
	movq	-792(%rbp), %rcx                ## 8-byte Reload
	.loc	9 105 39                        ## Pods/Headers/Public/Masonry/MASUtilities.h:105:39
	movq	8(%rcx), %rdx
	movq	%rdx, %rax
	addq	$8, %rdx
	movq	%rdx, 8(%rcx)
	movq	%rax, -800(%rbp)                ## 8-byte Spill
LBB1_41:
	.loc	9 0 39                          ## Pods/Headers/Public/Masonry/MASUtilities.h:0:39
	movq	-800(%rbp), %rax                ## 8-byte Reload
	.loc	9 105 39                        ## Pods/Headers/Public/Masonry/MASUtilities.h:105:39
	movq	(%rax), %rax
	.loc	9 105 19                        ## Pods/Headers/Public/Masonry/MASUtilities.h:105:19
	movq	%rax, -184(%rbp)
	.loc	9 106 15 is_stmt 1              ## Pods/Headers/Public/Masonry/MASUtilities.h:106:15
	movq	_OBJC_CLASSLIST_REFERENCES_$_.30(%rip), %rdi
	.loc	9 106 44 is_stmt 0              ## Pods/Headers/Public/Masonry/MASUtilities.h:106:44
	movq	-184(%rbp), %rdx
	.loc	9 106 15                        ## Pods/Headers/Public/Masonry/MASUtilities.h:106:15
	movq	_OBJC_SELECTOR_REFERENCES_.43(%rip), %rsi
	callq	*_objc_msgSend@GOTPCREL(%rip)
	movq	%rax, %rdi
	.loc	9 106 13                        ## Pods/Headers/Public/Masonry/MASUtilities.h:106:13
	callq	_objc_retainAutoreleasedReturnValue
	movq	-48(%rbp), %rdi
	movq	%rax, -48(%rbp)
	callq	*_objc_release@GOTPCREL(%rip)
	.loc	9 107 5 is_stmt 1               ## Pods/Headers/Public/Masonry/MASUtilities.h:107:5
	jmp	LBB1_90
Ltmp46:
LBB1_42:
	.loc	9 107 23 is_stmt 0              ## Pods/Headers/Public/Masonry/MASUtilities.h:107:23
	movq	-40(%rbp), %rdi
	.loc	9 107 16                        ## Pods/Headers/Public/Masonry/MASUtilities.h:107:16
	leaq	L_.str.44(%rip), %rsi
	callq	_strcmp
	.loc	9 107 45                        ## Pods/Headers/Public/Masonry/MASUtilities.h:107:45
	cmpl	$0, %eax
Ltmp47:
	.loc	9 107 16                        ## Pods/Headers/Public/Masonry/MASUtilities.h:107:16
	jne	LBB1_47
## %bb.43:
	.loc	9 0 16                          ## Pods/Headers/Public/Masonry/MASUtilities.h:0:16
	leaq	-32(%rbp), %rax
	movq	%rax, -816(%rbp)                ## 8-byte Spill
Ltmp48:
	.loc	9 108 31 is_stmt 1              ## Pods/Headers/Public/Masonry/MASUtilities.h:108:31
	movl	-32(%rbp), %eax
	movl	%eax, -804(%rbp)                ## 4-byte Spill
	cmpl	$40, %eax
	ja	LBB1_45
## %bb.44:
	.loc	9 0 31 is_stmt 0                ## Pods/Headers/Public/Masonry/MASUtilities.h:0:31
	movq	-816(%rbp), %rcx                ## 8-byte Reload
	movl	-804(%rbp), %edx                ## 4-byte Reload
	.loc	9 108 31                        ## Pods/Headers/Public/Masonry/MASUtilities.h:108:31
	movslq	%edx, %rax
	addq	16(%rcx), %rax
	addl	$8, %edx
	movl	%edx, (%rcx)
	movq	%rax, -824(%rbp)                ## 8-byte Spill
	jmp	LBB1_46
LBB1_45:
	.loc	9 0 31                          ## Pods/Headers/Public/Masonry/MASUtilities.h:0:31
	movq	-816(%rbp), %rcx                ## 8-byte Reload
	.loc	9 108 31                        ## Pods/Headers/Public/Masonry/MASUtilities.h:108:31
	movq	8(%rcx), %rdx
	movq	%rdx, %rax
	addq	$8, %rdx
	movq	%rdx, 8(%rcx)
	movq	%rax, -824(%rbp)                ## 8-byte Spill
LBB1_46:
	.loc	9 0 31                          ## Pods/Headers/Public/Masonry/MASUtilities.h:0:31
	movq	-824(%rbp), %rax                ## 8-byte Reload
	.loc	9 108 31                        ## Pods/Headers/Public/Masonry/MASUtilities.h:108:31
	movl	(%rax), %eax
                                        ## kill: def $ax killed $ax killed $eax
	.loc	9 108 15                        ## Pods/Headers/Public/Masonry/MASUtilities.h:108:15
	movw	%ax, -186(%rbp)
	.loc	9 109 15 is_stmt 1              ## Pods/Headers/Public/Masonry/MASUtilities.h:109:15
	movq	_OBJC_CLASSLIST_REFERENCES_$_.30(%rip), %rdi
	.loc	9 109 41 is_stmt 0              ## Pods/Headers/Public/Masonry/MASUtilities.h:109:41
	movw	-186(%rbp), %ax
	.loc	9 109 15                        ## Pods/Headers/Public/Masonry/MASUtilities.h:109:15
	movq	_OBJC_SELECTOR_REFERENCES_.46(%rip), %rsi
	movswl	%ax, %edx
	callq	*_objc_msgSend@GOTPCREL(%rip)
	movq	%rax, %rdi
	.loc	9 109 13                        ## Pods/Headers/Public/Masonry/MASUtilities.h:109:13
	callq	_objc_retainAutoreleasedReturnValue
	movq	-48(%rbp), %rdi
	movq	%rax, -48(%rbp)
	callq	*_objc_release@GOTPCREL(%rip)
	.loc	9 110 5 is_stmt 1               ## Pods/Headers/Public/Masonry/MASUtilities.h:110:5
	jmp	LBB1_89
Ltmp49:
LBB1_47:
	.loc	9 110 23 is_stmt 0              ## Pods/Headers/Public/Masonry/MASUtilities.h:110:23
	movq	-40(%rbp), %rdi
	.loc	9 110 16                        ## Pods/Headers/Public/Masonry/MASUtilities.h:110:16
	leaq	L_.str.47(%rip), %rsi
	callq	_strcmp
	.loc	9 110 44                        ## Pods/Headers/Public/Masonry/MASUtilities.h:110:44
	cmpl	$0, %eax
Ltmp50:
	.loc	9 110 16                        ## Pods/Headers/Public/Masonry/MASUtilities.h:110:16
	jne	LBB1_52
## %bb.48:
	.loc	9 0 16                          ## Pods/Headers/Public/Masonry/MASUtilities.h:0:16
	leaq	-32(%rbp), %rax
	movq	%rax, -840(%rbp)                ## 8-byte Spill
Ltmp51:
	.loc	9 111 29 is_stmt 1              ## Pods/Headers/Public/Masonry/MASUtilities.h:111:29
	movl	-32(%rbp), %eax
	movl	%eax, -828(%rbp)                ## 4-byte Spill
	cmpl	$40, %eax
	ja	LBB1_50
## %bb.49:
	.loc	9 0 29 is_stmt 0                ## Pods/Headers/Public/Masonry/MASUtilities.h:0:29
	movq	-840(%rbp), %rcx                ## 8-byte Reload
	movl	-828(%rbp), %edx                ## 4-byte Reload
	.loc	9 111 29                        ## Pods/Headers/Public/Masonry/MASUtilities.h:111:29
	movslq	%edx, %rax
	addq	16(%rcx), %rax
	addl	$8, %edx
	movl	%edx, (%rcx)
	movq	%rax, -848(%rbp)                ## 8-byte Spill
	jmp	LBB1_51
LBB1_50:
	.loc	9 0 29                          ## Pods/Headers/Public/Masonry/MASUtilities.h:0:29
	movq	-840(%rbp), %rcx                ## 8-byte Reload
	.loc	9 111 29                        ## Pods/Headers/Public/Masonry/MASUtilities.h:111:29
	movq	8(%rcx), %rdx
	movq	%rdx, %rax
	addq	$8, %rdx
	movq	%rdx, 8(%rcx)
	movq	%rax, -848(%rbp)                ## 8-byte Spill
LBB1_51:
	.loc	9 0 29                          ## Pods/Headers/Public/Masonry/MASUtilities.h:0:29
	movq	-848(%rbp), %rax                ## 8-byte Reload
	.loc	9 111 29                        ## Pods/Headers/Public/Masonry/MASUtilities.h:111:29
	movl	(%rax), %eax
                                        ## kill: def $al killed $al killed $eax
	.loc	9 111 14                        ## Pods/Headers/Public/Masonry/MASUtilities.h:111:14
	movb	%al, -187(%rbp)
	.loc	9 112 15 is_stmt 1              ## Pods/Headers/Public/Masonry/MASUtilities.h:112:15
	movq	_OBJC_CLASSLIST_REFERENCES_$_.30(%rip), %rdi
	.loc	9 112 40 is_stmt 0              ## Pods/Headers/Public/Masonry/MASUtilities.h:112:40
	movb	-187(%rbp), %al
	.loc	9 112 15                        ## Pods/Headers/Public/Masonry/MASUtilities.h:112:15
	movq	_OBJC_SELECTOR_REFERENCES_.49(%rip), %rsi
	movsbl	%al, %edx
	callq	*_objc_msgSend@GOTPCREL(%rip)
	movq	%rax, %rdi
	.loc	9 112 13                        ## Pods/Headers/Public/Masonry/MASUtilities.h:112:13
	callq	_objc_retainAutoreleasedReturnValue
	movq	-48(%rbp), %rdi
	movq	%rax, -48(%rbp)
	callq	*_objc_release@GOTPCREL(%rip)
	.loc	9 113 5 is_stmt 1               ## Pods/Headers/Public/Masonry/MASUtilities.h:113:5
	jmp	LBB1_88
Ltmp52:
LBB1_52:
	.loc	9 113 23 is_stmt 0              ## Pods/Headers/Public/Masonry/MASUtilities.h:113:23
	movq	-40(%rbp), %rdi
	.loc	9 113 16                        ## Pods/Headers/Public/Masonry/MASUtilities.h:113:16
	leaq	L_.str.50(%rip), %rsi
	callq	_strcmp
	.loc	9 113 44                        ## Pods/Headers/Public/Masonry/MASUtilities.h:113:44
	cmpl	$0, %eax
Ltmp53:
	.loc	9 113 16                        ## Pods/Headers/Public/Masonry/MASUtilities.h:113:16
	jne	LBB1_57
## %bb.53:
	.loc	9 0 16                          ## Pods/Headers/Public/Masonry/MASUtilities.h:0:16
	leaq	-32(%rbp), %rax
	movq	%rax, -864(%rbp)                ## 8-byte Spill
Ltmp54:
	.loc	9 114 29 is_stmt 1              ## Pods/Headers/Public/Masonry/MASUtilities.h:114:29
	movl	-32(%rbp), %eax
	movl	%eax, -852(%rbp)                ## 4-byte Spill
	cmpl	$40, %eax
	ja	LBB1_55
## %bb.54:
	.loc	9 0 29 is_stmt 0                ## Pods/Headers/Public/Masonry/MASUtilities.h:0:29
	movq	-864(%rbp), %rcx                ## 8-byte Reload
	movl	-852(%rbp), %edx                ## 4-byte Reload
	.loc	9 114 29                        ## Pods/Headers/Public/Masonry/MASUtilities.h:114:29
	movslq	%edx, %rax
	addq	16(%rcx), %rax
	addl	$8, %edx
	movl	%edx, (%rcx)
	movq	%rax, -872(%rbp)                ## 8-byte Spill
	jmp	LBB1_56
LBB1_55:
	.loc	9 0 29                          ## Pods/Headers/Public/Masonry/MASUtilities.h:0:29
	movq	-864(%rbp), %rcx                ## 8-byte Reload
	.loc	9 114 29                        ## Pods/Headers/Public/Masonry/MASUtilities.h:114:29
	movq	8(%rcx), %rdx
	movq	%rdx, %rax
	addq	$8, %rdx
	movq	%rdx, 8(%rcx)
	movq	%rax, -872(%rbp)                ## 8-byte Spill
LBB1_56:
	.loc	9 0 29                          ## Pods/Headers/Public/Masonry/MASUtilities.h:0:29
	movq	-872(%rbp), %rax                ## 8-byte Reload
	.loc	9 114 23                        ## Pods/Headers/Public/Masonry/MASUtilities.h:114:23
	cmpl	$0, (%rax)
	setne	%al
	.loc	9 114 14                        ## Pods/Headers/Public/Masonry/MASUtilities.h:114:14
	andb	$1, %al
	movb	%al, -188(%rbp)
	.loc	9 115 15 is_stmt 1              ## Pods/Headers/Public/Masonry/MASUtilities.h:115:15
	movq	_OBJC_CLASSLIST_REFERENCES_$_.30(%rip), %rdi
	.loc	9 115 40 is_stmt 0              ## Pods/Headers/Public/Masonry/MASUtilities.h:115:40
	movb	-188(%rbp), %al
	.loc	9 115 15                        ## Pods/Headers/Public/Masonry/MASUtilities.h:115:15
	movq	_OBJC_SELECTOR_REFERENCES_.52(%rip), %rsi
	andb	$1, %al
	movzbl	%al, %edx
	callq	*_objc_msgSend@GOTPCREL(%rip)
	movq	%rax, %rdi
	.loc	9 115 13                        ## Pods/Headers/Public/Masonry/MASUtilities.h:115:13
	callq	_objc_retainAutoreleasedReturnValue
	movq	-48(%rbp), %rdi
	movq	%rax, -48(%rbp)
	callq	*_objc_release@GOTPCREL(%rip)
	.loc	9 116 5 is_stmt 1               ## Pods/Headers/Public/Masonry/MASUtilities.h:116:5
	jmp	LBB1_87
Ltmp55:
LBB1_57:
	.loc	9 116 23 is_stmt 0              ## Pods/Headers/Public/Masonry/MASUtilities.h:116:23
	movq	-40(%rbp), %rdi
	.loc	9 116 16                        ## Pods/Headers/Public/Masonry/MASUtilities.h:116:16
	leaq	L_.str.53(%rip), %rsi
	callq	_strcmp
	.loc	9 116 53                        ## Pods/Headers/Public/Masonry/MASUtilities.h:116:53
	cmpl	$0, %eax
Ltmp56:
	.loc	9 116 16                        ## Pods/Headers/Public/Masonry/MASUtilities.h:116:16
	jne	LBB1_62
## %bb.58:
	.loc	9 0 16                          ## Pods/Headers/Public/Masonry/MASUtilities.h:0:16
	leaq	-32(%rbp), %rax
	movq	%rax, -888(%rbp)                ## 8-byte Spill
Ltmp57:
	.loc	9 117 47 is_stmt 1              ## Pods/Headers/Public/Masonry/MASUtilities.h:117:47
	movl	-32(%rbp), %eax
	movl	%eax, -876(%rbp)                ## 4-byte Spill
	cmpl	$40, %eax
	ja	LBB1_60
## %bb.59:
	.loc	9 0 47 is_stmt 0                ## Pods/Headers/Public/Masonry/MASUtilities.h:0:47
	movq	-888(%rbp), %rcx                ## 8-byte Reload
	movl	-876(%rbp), %edx                ## 4-byte Reload
	.loc	9 117 47                        ## Pods/Headers/Public/Masonry/MASUtilities.h:117:47
	movslq	%edx, %rax
	addq	16(%rcx), %rax
	addl	$8, %edx
	movl	%edx, (%rcx)
	movq	%rax, -896(%rbp)                ## 8-byte Spill
	jmp	LBB1_61
LBB1_60:
	.loc	9 0 47                          ## Pods/Headers/Public/Masonry/MASUtilities.h:0:47
	movq	-888(%rbp), %rcx                ## 8-byte Reload
	.loc	9 117 47                        ## Pods/Headers/Public/Masonry/MASUtilities.h:117:47
	movq	8(%rcx), %rdx
	movq	%rdx, %rax
	addq	$8, %rdx
	movq	%rdx, 8(%rcx)
	movq	%rax, -896(%rbp)                ## 8-byte Spill
LBB1_61:
	.loc	9 0 47                          ## Pods/Headers/Public/Masonry/MASUtilities.h:0:47
	movq	-896(%rbp), %rax                ## 8-byte Reload
	.loc	9 117 47                        ## Pods/Headers/Public/Masonry/MASUtilities.h:117:47
	movl	(%rax), %eax
                                        ## kill: def $al killed $al killed $eax
	.loc	9 117 23                        ## Pods/Headers/Public/Masonry/MASUtilities.h:117:23
	movb	%al, -189(%rbp)
	.loc	9 118 15 is_stmt 1              ## Pods/Headers/Public/Masonry/MASUtilities.h:118:15
	movq	_OBJC_CLASSLIST_REFERENCES_$_.30(%rip), %rdi
	.loc	9 118 48 is_stmt 0              ## Pods/Headers/Public/Masonry/MASUtilities.h:118:48
	movb	-189(%rbp), %al
	.loc	9 118 15                        ## Pods/Headers/Public/Masonry/MASUtilities.h:118:15
	movq	_OBJC_SELECTOR_REFERENCES_.55(%rip), %rsi
	movzbl	%al, %edx
	callq	*_objc_msgSend@GOTPCREL(%rip)
	movq	%rax, %rdi
	.loc	9 118 13                        ## Pods/Headers/Public/Masonry/MASUtilities.h:118:13
	callq	_objc_retainAutoreleasedReturnValue
	movq	-48(%rbp), %rdi
	movq	%rax, -48(%rbp)
	callq	*_objc_release@GOTPCREL(%rip)
	.loc	9 119 5 is_stmt 1               ## Pods/Headers/Public/Masonry/MASUtilities.h:119:5
	jmp	LBB1_86
Ltmp58:
LBB1_62:
	.loc	9 119 23 is_stmt 0              ## Pods/Headers/Public/Masonry/MASUtilities.h:119:23
	movq	-40(%rbp), %rdi
	.loc	9 119 16                        ## Pods/Headers/Public/Masonry/MASUtilities.h:119:16
	leaq	L_.str.56(%rip), %rsi
	callq	_strcmp
	.loc	9 119 52                        ## Pods/Headers/Public/Masonry/MASUtilities.h:119:52
	cmpl	$0, %eax
Ltmp59:
	.loc	9 119 16                        ## Pods/Headers/Public/Masonry/MASUtilities.h:119:16
	jne	LBB1_67
## %bb.63:
	.loc	9 0 16                          ## Pods/Headers/Public/Masonry/MASUtilities.h:0:16
	leaq	-32(%rbp), %rax
	movq	%rax, -912(%rbp)                ## 8-byte Spill
Ltmp60:
	.loc	9 120 45 is_stmt 1              ## Pods/Headers/Public/Masonry/MASUtilities.h:120:45
	movl	-32(%rbp), %eax
	movl	%eax, -900(%rbp)                ## 4-byte Spill
	cmpl	$40, %eax
	ja	LBB1_65
## %bb.64:
	.loc	9 0 45 is_stmt 0                ## Pods/Headers/Public/Masonry/MASUtilities.h:0:45
	movq	-912(%rbp), %rcx                ## 8-byte Reload
	movl	-900(%rbp), %edx                ## 4-byte Reload
	.loc	9 120 45                        ## Pods/Headers/Public/Masonry/MASUtilities.h:120:45
	movslq	%edx, %rax
	addq	16(%rcx), %rax
	addl	$8, %edx
	movl	%edx, (%rcx)
	movq	%rax, -920(%rbp)                ## 8-byte Spill
	jmp	LBB1_66
LBB1_65:
	.loc	9 0 45                          ## Pods/Headers/Public/Masonry/MASUtilities.h:0:45
	movq	-912(%rbp), %rcx                ## 8-byte Reload
	.loc	9 120 45                        ## Pods/Headers/Public/Masonry/MASUtilities.h:120:45
	movq	8(%rcx), %rdx
	movq	%rdx, %rax
	addq	$8, %rdx
	movq	%rdx, 8(%rcx)
	movq	%rax, -920(%rbp)                ## 8-byte Spill
LBB1_66:
	.loc	9 0 45                          ## Pods/Headers/Public/Masonry/MASUtilities.h:0:45
	movq	-920(%rbp), %rax                ## 8-byte Reload
	.loc	9 120 45                        ## Pods/Headers/Public/Masonry/MASUtilities.h:120:45
	movl	(%rax), %eax
	.loc	9 120 22                        ## Pods/Headers/Public/Masonry/MASUtilities.h:120:22
	movl	%eax, -196(%rbp)
	.loc	9 121 15 is_stmt 1              ## Pods/Headers/Public/Masonry/MASUtilities.h:121:15
	movq	_OBJC_CLASSLIST_REFERENCES_$_.30(%rip), %rdi
	.loc	9 121 47 is_stmt 0              ## Pods/Headers/Public/Masonry/MASUtilities.h:121:47
	movl	-196(%rbp), %edx
	.loc	9 121 15                        ## Pods/Headers/Public/Masonry/MASUtilities.h:121:15
	movq	_OBJC_SELECTOR_REFERENCES_.58(%rip), %rsi
	callq	*_objc_msgSend@GOTPCREL(%rip)
	movq	%rax, %rdi
	.loc	9 121 13                        ## Pods/Headers/Public/Masonry/MASUtilities.h:121:13
	callq	_objc_retainAutoreleasedReturnValue
	movq	-48(%rbp), %rdi
	movq	%rax, -48(%rbp)
	callq	*_objc_release@GOTPCREL(%rip)
	.loc	9 122 5 is_stmt 1               ## Pods/Headers/Public/Masonry/MASUtilities.h:122:5
	jmp	LBB1_85
Ltmp61:
LBB1_67:
	.loc	9 122 23 is_stmt 0              ## Pods/Headers/Public/Masonry/MASUtilities.h:122:23
	movq	-40(%rbp), %rdi
	.loc	9 122 16                        ## Pods/Headers/Public/Masonry/MASUtilities.h:122:16
	leaq	L_.str.59(%rip), %rsi
	callq	_strcmp
	.loc	9 122 53                        ## Pods/Headers/Public/Masonry/MASUtilities.h:122:53
	cmpl	$0, %eax
Ltmp62:
	.loc	9 122 16                        ## Pods/Headers/Public/Masonry/MASUtilities.h:122:16
	jne	LBB1_72
## %bb.68:
	.loc	9 0 16                          ## Pods/Headers/Public/Masonry/MASUtilities.h:0:16
	leaq	-32(%rbp), %rax
	movq	%rax, -936(%rbp)                ## 8-byte Spill
Ltmp63:
	.loc	9 123 47 is_stmt 1              ## Pods/Headers/Public/Masonry/MASUtilities.h:123:47
	movl	-32(%rbp), %eax
	movl	%eax, -924(%rbp)                ## 4-byte Spill
	cmpl	$40, %eax
	ja	LBB1_70
## %bb.69:
	.loc	9 0 47 is_stmt 0                ## Pods/Headers/Public/Masonry/MASUtilities.h:0:47
	movq	-936(%rbp), %rcx                ## 8-byte Reload
	movl	-924(%rbp), %edx                ## 4-byte Reload
	.loc	9 123 47                        ## Pods/Headers/Public/Masonry/MASUtilities.h:123:47
	movslq	%edx, %rax
	addq	16(%rcx), %rax
	addl	$8, %edx
	movl	%edx, (%rcx)
	movq	%rax, -944(%rbp)                ## 8-byte Spill
	jmp	LBB1_71
LBB1_70:
	.loc	9 0 47                          ## Pods/Headers/Public/Masonry/MASUtilities.h:0:47
	movq	-936(%rbp), %rcx                ## 8-byte Reload
	.loc	9 123 47                        ## Pods/Headers/Public/Masonry/MASUtilities.h:123:47
	movq	8(%rcx), %rdx
	movq	%rdx, %rax
	addq	$8, %rdx
	movq	%rdx, 8(%rcx)
	movq	%rax, -944(%rbp)                ## 8-byte Spill
LBB1_71:
	.loc	9 0 47                          ## Pods/Headers/Public/Masonry/MASUtilities.h:0:47
	movq	-944(%rbp), %rax                ## 8-byte Reload
	.loc	9 123 47                        ## Pods/Headers/Public/Masonry/MASUtilities.h:123:47
	movq	(%rax), %rax
	.loc	9 123 23                        ## Pods/Headers/Public/Masonry/MASUtilities.h:123:23
	movq	%rax, -208(%rbp)
	.loc	9 124 15 is_stmt 1              ## Pods/Headers/Public/Masonry/MASUtilities.h:124:15
	movq	_OBJC_CLASSLIST_REFERENCES_$_.30(%rip), %rdi
	.loc	9 124 48 is_stmt 0              ## Pods/Headers/Public/Masonry/MASUtilities.h:124:48
	movq	-208(%rbp), %rdx
	.loc	9 124 15                        ## Pods/Headers/Public/Masonry/MASUtilities.h:124:15
	movq	_OBJC_SELECTOR_REFERENCES_.61(%rip), %rsi
	callq	*_objc_msgSend@GOTPCREL(%rip)
	movq	%rax, %rdi
	.loc	9 124 13                        ## Pods/Headers/Public/Masonry/MASUtilities.h:124:13
	callq	_objc_retainAutoreleasedReturnValue
	movq	-48(%rbp), %rdi
	movq	%rax, -48(%rbp)
	callq	*_objc_release@GOTPCREL(%rip)
	.loc	9 125 5 is_stmt 1               ## Pods/Headers/Public/Masonry/MASUtilities.h:125:5
	jmp	LBB1_84
Ltmp64:
LBB1_72:
	.loc	9 125 23 is_stmt 0              ## Pods/Headers/Public/Masonry/MASUtilities.h:125:23
	movq	-40(%rbp), %rdi
	.loc	9 125 16                        ## Pods/Headers/Public/Masonry/MASUtilities.h:125:16
	leaq	L_.str.59(%rip), %rsi
	callq	_strcmp
	.loc	9 125 58                        ## Pods/Headers/Public/Masonry/MASUtilities.h:125:58
	cmpl	$0, %eax
Ltmp65:
	.loc	9 125 16                        ## Pods/Headers/Public/Masonry/MASUtilities.h:125:16
	jne	LBB1_77
## %bb.73:
	.loc	9 0 16                          ## Pods/Headers/Public/Masonry/MASUtilities.h:0:16
	leaq	-32(%rbp), %rax
	movq	%rax, -960(%rbp)                ## 8-byte Spill
Ltmp66:
	.loc	9 126 57 is_stmt 1              ## Pods/Headers/Public/Masonry/MASUtilities.h:126:57
	movl	-32(%rbp), %eax
	movl	%eax, -948(%rbp)                ## 4-byte Spill
	cmpl	$40, %eax
	ja	LBB1_75
## %bb.74:
	.loc	9 0 57 is_stmt 0                ## Pods/Headers/Public/Masonry/MASUtilities.h:0:57
	movq	-960(%rbp), %rcx                ## 8-byte Reload
	movl	-948(%rbp), %edx                ## 4-byte Reload
	.loc	9 126 57                        ## Pods/Headers/Public/Masonry/MASUtilities.h:126:57
	movslq	%edx, %rax
	addq	16(%rcx), %rax
	addl	$8, %edx
	movl	%edx, (%rcx)
	movq	%rax, -968(%rbp)                ## 8-byte Spill
	jmp	LBB1_76
LBB1_75:
	.loc	9 0 57                          ## Pods/Headers/Public/Masonry/MASUtilities.h:0:57
	movq	-960(%rbp), %rcx                ## 8-byte Reload
	.loc	9 126 57                        ## Pods/Headers/Public/Masonry/MASUtilities.h:126:57
	movq	8(%rcx), %rdx
	movq	%rdx, %rax
	addq	$8, %rdx
	movq	%rdx, 8(%rcx)
	movq	%rax, -968(%rbp)                ## 8-byte Spill
LBB1_76:
	.loc	9 0 57                          ## Pods/Headers/Public/Masonry/MASUtilities.h:0:57
	movq	-968(%rbp), %rax                ## 8-byte Reload
	.loc	9 126 57                        ## Pods/Headers/Public/Masonry/MASUtilities.h:126:57
	movq	(%rax), %rax
	.loc	9 126 28                        ## Pods/Headers/Public/Masonry/MASUtilities.h:126:28
	movq	%rax, -216(%rbp)
	.loc	9 127 15 is_stmt 1              ## Pods/Headers/Public/Masonry/MASUtilities.h:127:15
	movq	_OBJC_CLASSLIST_REFERENCES_$_.30(%rip), %rdi
	.loc	9 127 52 is_stmt 0              ## Pods/Headers/Public/Masonry/MASUtilities.h:127:52
	movq	-216(%rbp), %rdx
	.loc	9 127 15                        ## Pods/Headers/Public/Masonry/MASUtilities.h:127:15
	movq	_OBJC_SELECTOR_REFERENCES_.63(%rip), %rsi
	callq	*_objc_msgSend@GOTPCREL(%rip)
	movq	%rax, %rdi
	.loc	9 127 13                        ## Pods/Headers/Public/Masonry/MASUtilities.h:127:13
	callq	_objc_retainAutoreleasedReturnValue
	movq	-48(%rbp), %rdi
	movq	%rax, -48(%rbp)
	callq	*_objc_release@GOTPCREL(%rip)
	.loc	9 128 5 is_stmt 1               ## Pods/Headers/Public/Masonry/MASUtilities.h:128:5
	jmp	LBB1_83
Ltmp67:
LBB1_77:
	.loc	9 128 23 is_stmt 0              ## Pods/Headers/Public/Masonry/MASUtilities.h:128:23
	movq	-40(%rbp), %rdi
	.loc	9 128 16                        ## Pods/Headers/Public/Masonry/MASUtilities.h:128:16
	leaq	L_.str.64(%rip), %rsi
	callq	_strcmp
	.loc	9 128 54                        ## Pods/Headers/Public/Masonry/MASUtilities.h:128:54
	cmpl	$0, %eax
Ltmp68:
	.loc	9 128 16                        ## Pods/Headers/Public/Masonry/MASUtilities.h:128:16
	jne	LBB1_82
## %bb.78:
	.loc	9 0 16                          ## Pods/Headers/Public/Masonry/MASUtilities.h:0:16
	leaq	-32(%rbp), %rax
	movq	%rax, -984(%rbp)                ## 8-byte Spill
Ltmp69:
	.loc	9 129 49 is_stmt 1              ## Pods/Headers/Public/Masonry/MASUtilities.h:129:49
	movl	-32(%rbp), %eax
	movl	%eax, -972(%rbp)                ## 4-byte Spill
	cmpl	$40, %eax
	ja	LBB1_80
## %bb.79:
	.loc	9 0 49 is_stmt 0                ## Pods/Headers/Public/Masonry/MASUtilities.h:0:49
	movq	-984(%rbp), %rcx                ## 8-byte Reload
	movl	-972(%rbp), %edx                ## 4-byte Reload
	.loc	9 129 49                        ## Pods/Headers/Public/Masonry/MASUtilities.h:129:49
	movslq	%edx, %rax
	addq	16(%rcx), %rax
	addl	$8, %edx
	movl	%edx, (%rcx)
	movq	%rax, -992(%rbp)                ## 8-byte Spill
	jmp	LBB1_81
LBB1_80:
	.loc	9 0 49                          ## Pods/Headers/Public/Masonry/MASUtilities.h:0:49
	movq	-984(%rbp), %rcx                ## 8-byte Reload
	.loc	9 129 49                        ## Pods/Headers/Public/Masonry/MASUtilities.h:129:49
	movq	8(%rcx), %rdx
	movq	%rdx, %rax
	addq	$8, %rdx
	movq	%rdx, 8(%rcx)
	movq	%rax, -992(%rbp)                ## 8-byte Spill
LBB1_81:
	.loc	9 0 49                          ## Pods/Headers/Public/Masonry/MASUtilities.h:0:49
	movq	-992(%rbp), %rax                ## 8-byte Reload
	.loc	9 129 49                        ## Pods/Headers/Public/Masonry/MASUtilities.h:129:49
	movl	(%rax), %eax
                                        ## kill: def $ax killed $ax killed $eax
	.loc	9 129 24                        ## Pods/Headers/Public/Masonry/MASUtilities.h:129:24
	movw	%ax, -218(%rbp)
	.loc	9 130 15 is_stmt 1              ## Pods/Headers/Public/Masonry/MASUtilities.h:130:15
	movq	_OBJC_CLASSLIST_REFERENCES_$_.30(%rip), %rdi
	.loc	9 130 49 is_stmt 0              ## Pods/Headers/Public/Masonry/MASUtilities.h:130:49
	movw	-218(%rbp), %ax
	.loc	9 130 15                        ## Pods/Headers/Public/Masonry/MASUtilities.h:130:15
	movq	_OBJC_SELECTOR_REFERENCES_.66(%rip), %rsi
	movzwl	%ax, %edx
	callq	*_objc_msgSend@GOTPCREL(%rip)
	movq	%rax, %rdi
	.loc	9 130 13                        ## Pods/Headers/Public/Masonry/MASUtilities.h:130:13
	callq	_objc_retainAutoreleasedReturnValue
	movq	-48(%rbp), %rdi
	movq	%rax, -48(%rbp)
	callq	*_objc_release@GOTPCREL(%rip)
Ltmp70:
LBB1_82:
	.loc	9 0 13                          ## Pods/Headers/Public/Masonry/MASUtilities.h:0:13
	jmp	LBB1_83
LBB1_83:
	jmp	LBB1_84
LBB1_84:
	jmp	LBB1_85
LBB1_85:
	jmp	LBB1_86
LBB1_86:
	jmp	LBB1_87
LBB1_87:
	jmp	LBB1_88
LBB1_88:
	jmp	LBB1_89
LBB1_89:
	jmp	LBB1_90
LBB1_90:
	jmp	LBB1_91
LBB1_91:
	jmp	LBB1_92
LBB1_92:
	jmp	LBB1_93
LBB1_93:
	jmp	LBB1_94
LBB1_94:
	jmp	LBB1_95
LBB1_95:
	jmp	LBB1_96
LBB1_96:
	jmp	LBB1_97
LBB1_97:
	jmp	LBB1_98
LBB1_98:
	leaq	-32(%rbp), %rax
	.loc	9 133 12 is_stmt 1              ## Pods/Headers/Public/Masonry/MASUtilities.h:133:12
	movq	-48(%rbp), %rdi
	callq	*_objc_retain@GOTPCREL(%rip)
	movq	%rax, -1008(%rbp)               ## 8-byte Spill
	xorl	%eax, %eax
	movl	%eax, %esi
	.loc	9 134 1                         ## Pods/Headers/Public/Masonry/MASUtilities.h:134:1
	leaq	-48(%rbp), %rdi
	callq	_objc_storeStrong
	movq	-1008(%rbp), %rdi               ## 8-byte Reload
	callq	_objc_autoreleaseReturnValue
	movq	%rax, -1000(%rbp)               ## 8-byte Spill
	movq	___stack_chk_guard@GOTPCREL(%rip), %rax
	movq	(%rax), %rax
	movq	-8(%rbp), %rcx
	cmpq	%rcx, %rax
	jne	LBB1_100
## %bb.99:
	.loc	9 0 1 is_stmt 0                 ## Pods/Headers/Public/Masonry/MASUtilities.h:0:1
	movq	-1000(%rbp), %rax               ## 8-byte Reload
	.loc	9 134 1                         ## Pods/Headers/Public/Masonry/MASUtilities.h:134:1
	addq	$1008, %rsp                     ## imm = 0x3F0
	popq	%rbp
	retq
LBB1_100:
	.loc	9 0 0                           ## Pods/Headers/Public/Masonry/MASUtilities.h:0:0
	callq	___stack_chk_fail
	ud2
Ltmp71:
Lfunc_end1:
	.cfi_endproc
                                        ## -- End function
	.p2align	4, 0x90                         ## -- Begin function CGSizeMake
_CGSizeMake:                            ## @CGSizeMake
Lfunc_begin2:
	.loc	3 287 0 is_stmt 1               ## /Applications/Xcode.app/Contents/Developer/Platforms/iPhoneSimulator.platform/Developer/SDKs/iPhoneSimulator15.2.sdk/System/Library/Frameworks/CoreGraphics.framework/Headers/CGGeometry.h:287:0
	.cfi_startproc
## %bb.0:
	pushq	%rbp
	.cfi_def_cfa_offset 16
	.cfi_offset %rbp, -16
	movq	%rsp, %rbp
	.cfi_def_cfa_register %rbp
	movsd	%xmm0, -24(%rbp)
	movsd	%xmm1, -32(%rbp)
Ltmp72:
	.loc	3 288 29 prologue_end           ## /Applications/Xcode.app/Contents/Developer/Platforms/iPhoneSimulator.platform/Developer/SDKs/iPhoneSimulator15.2.sdk/System/Library/Frameworks/CoreGraphics.framework/Headers/CGGeometry.h:288:29
	movsd	-24(%rbp), %xmm0                ## xmm0 = mem[0],zero
	.loc	3 288 27 is_stmt 0              ## /Applications/Xcode.app/Contents/Developer/Platforms/iPhoneSimulator.platform/Developer/SDKs/iPhoneSimulator15.2.sdk/System/Library/Frameworks/CoreGraphics.framework/Headers/CGGeometry.h:288:27
	movsd	%xmm0, -16(%rbp)
	.loc	3 288 50                        ## /Applications/Xcode.app/Contents/Developer/Platforms/iPhoneSimulator.platform/Developer/SDKs/iPhoneSimulator15.2.sdk/System/Library/Frameworks/CoreGraphics.framework/Headers/CGGeometry.h:288:50
	movsd	-32(%rbp), %xmm0                ## xmm0 = mem[0],zero
	.loc	3 288 48                        ## /Applications/Xcode.app/Contents/Developer/Platforms/iPhoneSimulator.platform/Developer/SDKs/iPhoneSimulator15.2.sdk/System/Library/Frameworks/CoreGraphics.framework/Headers/CGGeometry.h:288:48
	movsd	%xmm0, -8(%rbp)
	.loc	3 288 58                        ## /Applications/Xcode.app/Contents/Developer/Platforms/iPhoneSimulator.platform/Developer/SDKs/iPhoneSimulator15.2.sdk/System/Library/Frameworks/CoreGraphics.framework/Headers/CGGeometry.h:288:58
	movsd	-16(%rbp), %xmm0                ## xmm0 = mem[0],zero
	movsd	-8(%rbp), %xmm1                 ## xmm1 = mem[0],zero
	popq	%rbp
	retq
Ltmp73:
Lfunc_end2:
	.cfi_endproc
                                        ## -- End function
	.section	__DATA,__objc_data
	.globl	_OBJC_CLASS_$_ViewController    ## @"OBJC_CLASS_$_ViewController"
	.p2align	3
_OBJC_CLASS_$_ViewController:
	.quad	_OBJC_METACLASS_$_ViewController
	.quad	_OBJC_CLASS_$_UIViewController
	.quad	__objc_empty_cache
	.quad	0
	.quad	__OBJC_CLASS_RO_$_ViewController

	.section	__DATA,__objc_superrefs,regular,no_dead_strip
	.p2align	3                               ## @"OBJC_CLASSLIST_SUP_REFS_$_"
l_OBJC_CLASSLIST_SUP_REFS_$_:
	.quad	_OBJC_CLASS_$_ViewController

	.section	__TEXT,__objc_methname,cstring_literals
L_OBJC_METH_VAR_NAME_:                  ## @OBJC_METH_VAR_NAME_
	.asciz	"viewDidLoad"

	.section	__DATA,__objc_selrefs,literal_pointers,no_dead_strip
	.p2align	3                               ## @OBJC_SELECTOR_REFERENCES_
_OBJC_SELECTOR_REFERENCES_:
	.quad	L_OBJC_METH_VAR_NAME_

	.section	__TEXT,__objc_methname,cstring_literals
L_OBJC_METH_VAR_NAME_.1:                ## @OBJC_METH_VAR_NAME_.1
	.asciz	"view"

	.section	__DATA,__objc_selrefs,literal_pointers,no_dead_strip
	.p2align	3                               ## @OBJC_SELECTOR_REFERENCES_.2
_OBJC_SELECTOR_REFERENCES_.2:
	.quad	L_OBJC_METH_VAR_NAME_.1

	.section	__TEXT,__objc_methname,cstring_literals
L_OBJC_METH_VAR_NAME_.3:                ## @OBJC_METH_VAR_NAME_.3
	.asciz	"setTranslatesAutoresizingMaskIntoConstraints:"

	.section	__DATA,__objc_selrefs,literal_pointers,no_dead_strip
	.p2align	3                               ## @OBJC_SELECTOR_REFERENCES_.4
_OBJC_SELECTOR_REFERENCES_.4:
	.quad	L_OBJC_METH_VAR_NAME_.3

	.section	__DATA,__objc_classrefs,regular,no_dead_strip
	.p2align	3                               ## @"OBJC_CLASSLIST_REFERENCES_$_"
_OBJC_CLASSLIST_REFERENCES_$_:
	.quad	_OBJC_CLASS_$_MASConstraintMaker

	.section	__TEXT,__objc_methname,cstring_literals
L_OBJC_METH_VAR_NAME_.5:                ## @OBJC_METH_VAR_NAME_.5
	.asciz	"initWithView:"

	.section	__DATA,__objc_selrefs,literal_pointers,no_dead_strip
	.p2align	3                               ## @OBJC_SELECTOR_REFERENCES_.6
_OBJC_SELECTOR_REFERENCES_.6:
	.quad	L_OBJC_METH_VAR_NAME_.5

	.section	__TEXT,__objc_methname,cstring_literals
L_OBJC_METH_VAR_NAME_.7:                ## @OBJC_METH_VAR_NAME_.7
	.asciz	"leading"

	.section	__DATA,__objc_selrefs,literal_pointers,no_dead_strip
	.p2align	3                               ## @OBJC_SELECTOR_REFERENCES_.8
_OBJC_SELECTOR_REFERENCES_.8:
	.quad	L_OBJC_METH_VAR_NAME_.7

	.section	__TEXT,__objc_methname,cstring_literals
L_OBJC_METH_VAR_NAME_.9:                ## @OBJC_METH_VAR_NAME_.9
	.asciz	"equalTo"

	.section	__DATA,__objc_selrefs,literal_pointers,no_dead_strip
	.p2align	3                               ## @OBJC_SELECTOR_REFERENCES_.10
_OBJC_SELECTOR_REFERENCES_.10:
	.quad	L_OBJC_METH_VAR_NAME_.9

	.section	__TEXT,__cstring,cstring_literals
L_.str:                                 ## @.str
	.asciz	"@"

	.section	__TEXT,__objc_methname,cstring_literals
L_OBJC_METH_VAR_NAME_.11:               ## @OBJC_METH_VAR_NAME_.11
	.asciz	"bottom"

	.section	__DATA,__objc_selrefs,literal_pointers,no_dead_strip
	.p2align	3                               ## @OBJC_SELECTOR_REFERENCES_.12
_OBJC_SELECTOR_REFERENCES_.12:
	.quad	L_OBJC_METH_VAR_NAME_.11

	.section	__TEXT,__objc_methname,cstring_literals
L_OBJC_METH_VAR_NAME_.13:               ## @OBJC_METH_VAR_NAME_.13
	.asciz	"mas_bottom"

	.section	__DATA,__objc_selrefs,literal_pointers,no_dead_strip
	.p2align	3                               ## @OBJC_SELECTOR_REFERENCES_.14
_OBJC_SELECTOR_REFERENCES_.14:
	.quad	L_OBJC_METH_VAR_NAME_.13

	.section	__TEXT,__objc_methname,cstring_literals
L_OBJC_METH_VAR_NAME_.15:               ## @OBJC_METH_VAR_NAME_.15
	.asciz	"size"

	.section	__DATA,__objc_selrefs,literal_pointers,no_dead_strip
	.p2align	3                               ## @OBJC_SELECTOR_REFERENCES_.16
_OBJC_SELECTOR_REFERENCES_.16:
	.quad	L_OBJC_METH_VAR_NAME_.15

	.section	__TEXT,__cstring,cstring_literals
L_.str.17:                              ## @.str.17
	.asciz	"{CGSize=dd}"

	.section	__TEXT,__objc_methname,cstring_literals
L_OBJC_METH_VAR_NAME_.18:               ## @OBJC_METH_VAR_NAME_.18
	.asciz	"install"

	.section	__DATA,__objc_selrefs,literal_pointers,no_dead_strip
	.p2align	3                               ## @OBJC_SELECTOR_REFERENCES_.19
_OBJC_SELECTOR_REFERENCES_.19:
	.quad	L_OBJC_METH_VAR_NAME_.18

	.section	__TEXT,__objc_methname,cstring_literals
L_OBJC_METH_VAR_NAME_.20:               ## @OBJC_METH_VAR_NAME_.20
	.asciz	"setUpdateExisting:"

	.section	__DATA,__objc_selrefs,literal_pointers,no_dead_strip
	.p2align	3                               ## @OBJC_SELECTOR_REFERENCES_.21
_OBJC_SELECTOR_REFERENCES_.21:
	.quad	L_OBJC_METH_VAR_NAME_.20

	.section	__TEXT,__objc_methname,cstring_literals
L_OBJC_METH_VAR_NAME_.22:               ## @OBJC_METH_VAR_NAME_.22
	.asciz	"setRemoveExisting:"

	.section	__DATA,__objc_selrefs,literal_pointers,no_dead_strip
	.p2align	3                               ## @OBJC_SELECTOR_REFERENCES_.23
_OBJC_SELECTOR_REFERENCES_.23:
	.quad	L_OBJC_METH_VAR_NAME_.22

	.section	__TEXT,__objc_classname,cstring_literals
L_OBJC_CLASS_NAME_:                     ## @OBJC_CLASS_NAME_
	.asciz	"ViewController"

	.section	__DATA,__objc_const
	.p2align	3                               ## @"_OBJC_METACLASS_RO_$_ViewController"
__OBJC_METACLASS_RO_$_ViewController:
	.long	129                             ## 0x81
	.long	40                              ## 0x28
	.long	40                              ## 0x28
	.space	4
	.quad	0
	.quad	L_OBJC_CLASS_NAME_
	.quad	0
	.quad	0
	.quad	0
	.quad	0
	.quad	0

	.section	__DATA,__objc_data
	.globl	_OBJC_METACLASS_$_ViewController ## @"OBJC_METACLASS_$_ViewController"
	.p2align	3
_OBJC_METACLASS_$_ViewController:
	.quad	_OBJC_METACLASS_$_NSObject
	.quad	_OBJC_METACLASS_$_UIViewController
	.quad	__objc_empty_cache
	.quad	0
	.quad	__OBJC_METACLASS_RO_$_ViewController

	.section	__TEXT,__objc_methtype,cstring_literals
L_OBJC_METH_VAR_TYPE_:                  ## @OBJC_METH_VAR_TYPE_
	.asciz	"v16@0:8"

	.section	__DATA,__objc_const
	.p2align	3                               ## @"_OBJC_$_INSTANCE_METHODS_ViewController"
__OBJC_$_INSTANCE_METHODS_ViewController:
	.long	24                              ## 0x18
	.long	1                               ## 0x1
	.quad	L_OBJC_METH_VAR_NAME_
	.quad	L_OBJC_METH_VAR_TYPE_
	.quad	"-[ViewController viewDidLoad]"

	.p2align	3                               ## @"_OBJC_CLASS_RO_$_ViewController"
__OBJC_CLASS_RO_$_ViewController:
	.long	128                             ## 0x80
	.long	8                               ## 0x8
	.long	8                               ## 0x8
	.space	4
	.quad	0
	.quad	L_OBJC_CLASS_NAME_
	.quad	__OBJC_$_INSTANCE_METHODS_ViewController
	.quad	0
	.quad	0
	.quad	0
	.quad	0

	.section	__TEXT,__cstring,cstring_literals
L_.str.24:                              ## @.str.24
	.asciz	"{CGPoint=dd}"

	.section	__DATA,__objc_classrefs,regular,no_dead_strip
	.p2align	3                               ## @"OBJC_CLASSLIST_REFERENCES_$_.25"
_OBJC_CLASSLIST_REFERENCES_$_.25:
	.quad	_OBJC_CLASS_$_NSValue

	.section	__TEXT,__objc_methname,cstring_literals
L_OBJC_METH_VAR_NAME_.26:               ## @OBJC_METH_VAR_NAME_.26
	.asciz	"value:withObjCType:"

	.section	__DATA,__objc_selrefs,literal_pointers,no_dead_strip
	.p2align	3                               ## @OBJC_SELECTOR_REFERENCES_.27
_OBJC_SELECTOR_REFERENCES_.27:
	.quad	L_OBJC_METH_VAR_NAME_.26

	.section	__TEXT,__cstring,cstring_literals
L_.str.28:                              ## @.str.28
	.asciz	"{UIEdgeInsets=dddd}"

L_.str.29:                              ## @.str.29
	.asciz	"d"

	.section	__DATA,__objc_classrefs,regular,no_dead_strip
	.p2align	3                               ## @"OBJC_CLASSLIST_REFERENCES_$_.30"
_OBJC_CLASSLIST_REFERENCES_$_.30:
	.quad	_OBJC_CLASS_$_NSNumber

	.section	__TEXT,__objc_methname,cstring_literals
L_OBJC_METH_VAR_NAME_.31:               ## @OBJC_METH_VAR_NAME_.31
	.asciz	"numberWithDouble:"

	.section	__DATA,__objc_selrefs,literal_pointers,no_dead_strip
	.p2align	3                               ## @OBJC_SELECTOR_REFERENCES_.32
_OBJC_SELECTOR_REFERENCES_.32:
	.quad	L_OBJC_METH_VAR_NAME_.31

	.section	__TEXT,__cstring,cstring_literals
L_.str.33:                              ## @.str.33
	.asciz	"f"

	.section	__TEXT,__objc_methname,cstring_literals
L_OBJC_METH_VAR_NAME_.34:               ## @OBJC_METH_VAR_NAME_.34
	.asciz	"numberWithFloat:"

	.section	__DATA,__objc_selrefs,literal_pointers,no_dead_strip
	.p2align	3                               ## @OBJC_SELECTOR_REFERENCES_.35
_OBJC_SELECTOR_REFERENCES_.35:
	.quad	L_OBJC_METH_VAR_NAME_.34

	.section	__TEXT,__cstring,cstring_literals
L_.str.36:                              ## @.str.36
	.asciz	"i"

	.section	__TEXT,__objc_methname,cstring_literals
L_OBJC_METH_VAR_NAME_.37:               ## @OBJC_METH_VAR_NAME_.37
	.asciz	"numberWithInt:"

	.section	__DATA,__objc_selrefs,literal_pointers,no_dead_strip
	.p2align	3                               ## @OBJC_SELECTOR_REFERENCES_.38
_OBJC_SELECTOR_REFERENCES_.38:
	.quad	L_OBJC_METH_VAR_NAME_.37

	.section	__TEXT,__cstring,cstring_literals
L_.str.39:                              ## @.str.39
	.asciz	"q"

	.section	__TEXT,__objc_methname,cstring_literals
L_OBJC_METH_VAR_NAME_.40:               ## @OBJC_METH_VAR_NAME_.40
	.asciz	"numberWithLong:"

	.section	__DATA,__objc_selrefs,literal_pointers,no_dead_strip
	.p2align	3                               ## @OBJC_SELECTOR_REFERENCES_.41
_OBJC_SELECTOR_REFERENCES_.41:
	.quad	L_OBJC_METH_VAR_NAME_.40

	.section	__TEXT,__objc_methname,cstring_literals
L_OBJC_METH_VAR_NAME_.42:               ## @OBJC_METH_VAR_NAME_.42
	.asciz	"numberWithLongLong:"

	.section	__DATA,__objc_selrefs,literal_pointers,no_dead_strip
	.p2align	3                               ## @OBJC_SELECTOR_REFERENCES_.43
_OBJC_SELECTOR_REFERENCES_.43:
	.quad	L_OBJC_METH_VAR_NAME_.42

	.section	__TEXT,__cstring,cstring_literals
L_.str.44:                              ## @.str.44
	.asciz	"s"

	.section	__TEXT,__objc_methname,cstring_literals
L_OBJC_METH_VAR_NAME_.45:               ## @OBJC_METH_VAR_NAME_.45
	.asciz	"numberWithShort:"

	.section	__DATA,__objc_selrefs,literal_pointers,no_dead_strip
	.p2align	3                               ## @OBJC_SELECTOR_REFERENCES_.46
_OBJC_SELECTOR_REFERENCES_.46:
	.quad	L_OBJC_METH_VAR_NAME_.45

	.section	__TEXT,__cstring,cstring_literals
L_.str.47:                              ## @.str.47
	.asciz	"c"

	.section	__TEXT,__objc_methname,cstring_literals
L_OBJC_METH_VAR_NAME_.48:               ## @OBJC_METH_VAR_NAME_.48
	.asciz	"numberWithChar:"

	.section	__DATA,__objc_selrefs,literal_pointers,no_dead_strip
	.p2align	3                               ## @OBJC_SELECTOR_REFERENCES_.49
_OBJC_SELECTOR_REFERENCES_.49:
	.quad	L_OBJC_METH_VAR_NAME_.48

	.section	__TEXT,__cstring,cstring_literals
L_.str.50:                              ## @.str.50
	.asciz	"B"

	.section	__TEXT,__objc_methname,cstring_literals
L_OBJC_METH_VAR_NAME_.51:               ## @OBJC_METH_VAR_NAME_.51
	.asciz	"numberWithBool:"

	.section	__DATA,__objc_selrefs,literal_pointers,no_dead_strip
	.p2align	3                               ## @OBJC_SELECTOR_REFERENCES_.52
_OBJC_SELECTOR_REFERENCES_.52:
	.quad	L_OBJC_METH_VAR_NAME_.51

	.section	__TEXT,__cstring,cstring_literals
L_.str.53:                              ## @.str.53
	.asciz	"C"

	.section	__TEXT,__objc_methname,cstring_literals
L_OBJC_METH_VAR_NAME_.54:               ## @OBJC_METH_VAR_NAME_.54
	.asciz	"numberWithUnsignedChar:"

	.section	__DATA,__objc_selrefs,literal_pointers,no_dead_strip
	.p2align	3                               ## @OBJC_SELECTOR_REFERENCES_.55
_OBJC_SELECTOR_REFERENCES_.55:
	.quad	L_OBJC_METH_VAR_NAME_.54

	.section	__TEXT,__cstring,cstring_literals
L_.str.56:                              ## @.str.56
	.asciz	"I"

	.section	__TEXT,__objc_methname,cstring_literals
L_OBJC_METH_VAR_NAME_.57:               ## @OBJC_METH_VAR_NAME_.57
	.asciz	"numberWithUnsignedInt:"

	.section	__DATA,__objc_selrefs,literal_pointers,no_dead_strip
	.p2align	3                               ## @OBJC_SELECTOR_REFERENCES_.58
_OBJC_SELECTOR_REFERENCES_.58:
	.quad	L_OBJC_METH_VAR_NAME_.57

	.section	__TEXT,__cstring,cstring_literals
L_.str.59:                              ## @.str.59
	.asciz	"Q"

	.section	__TEXT,__objc_methname,cstring_literals
L_OBJC_METH_VAR_NAME_.60:               ## @OBJC_METH_VAR_NAME_.60
	.asciz	"numberWithUnsignedLong:"

	.section	__DATA,__objc_selrefs,literal_pointers,no_dead_strip
	.p2align	3                               ## @OBJC_SELECTOR_REFERENCES_.61
_OBJC_SELECTOR_REFERENCES_.61:
	.quad	L_OBJC_METH_VAR_NAME_.60

	.section	__TEXT,__objc_methname,cstring_literals
L_OBJC_METH_VAR_NAME_.62:               ## @OBJC_METH_VAR_NAME_.62
	.asciz	"numberWithUnsignedLongLong:"

	.section	__DATA,__objc_selrefs,literal_pointers,no_dead_strip
	.p2align	3                               ## @OBJC_SELECTOR_REFERENCES_.63
_OBJC_SELECTOR_REFERENCES_.63:
	.quad	L_OBJC_METH_VAR_NAME_.62

	.section	__TEXT,__cstring,cstring_literals
L_.str.64:                              ## @.str.64
	.asciz	"S"

	.section	__TEXT,__objc_methname,cstring_literals
L_OBJC_METH_VAR_NAME_.65:               ## @OBJC_METH_VAR_NAME_.65
	.asciz	"numberWithUnsignedShort:"

	.section	__DATA,__objc_selrefs,literal_pointers,no_dead_strip
	.p2align	3                               ## @OBJC_SELECTOR_REFERENCES_.66
_OBJC_SELECTOR_REFERENCES_.66:
	.quad	L_OBJC_METH_VAR_NAME_.65

	.section	__DATA,__objc_classlist,regular,no_dead_strip
	.p2align	3                               ## @"OBJC_LABEL_CLASS_$"
l_OBJC_LABEL_CLASS_$:
	.quad	_OBJC_CLASS_$_ViewController

	.linker_option "-framework", "UIKit"
	.linker_option "-framework", "FileProvider"
	.linker_option "-framework", "UserNotifications"
	.linker_option "-framework", "CoreText"
	.linker_option "-framework", "QuartzCore"
	.linker_option "-framework", "CoreImage"
	.linker_option "-framework", "ImageIO"
	.linker_option "-framework", "CoreVideo"
	.linker_option "-framework", "OpenGLES"
	.linker_option "-framework", "Metal"
	.linker_option "-framework", "IOSurface"
	.linker_option "-framework", "CoreGraphics"
	.linker_option "-framework", "Foundation"
	.linker_option "-framework", "CFNetwork"
	.linker_option "-framework", "Security"
	.linker_option "-framework", "CoreFoundation"
	.section	__DATA,__objc_imageinfo,regular,no_dead_strip
L_OBJC_IMAGE_INFO:
	.long	0
	.long	96

	.file	10 "/Users/king/WorkSpec/SourceCode/ccache/samples/ccache-sample" "/Users/king/WorkSpec/SourceCode/ccache/samples/ccache-sample/ccache-sample/ViewController.m"
	.file	11 "/Users/king/WorkSpec/SourceCode/ccache/samples/ccache-sample" "Pods/Headers/Public/Masonry/MASConstraint.h"
	.file	12 "/Applications/Xcode.app/Contents/Developer/Platforms/iPhoneSimulator.platform/Developer/SDKs/iPhoneSimulator15.2.sdk/usr/include/objc" "objc.h"
	.file	13 "/Applications/Xcode.app/Contents/Developer/Platforms/iPhoneSimulator.platform/Developer/SDKs/iPhoneSimulator15.2.sdk/usr/include/i386" "_types.h"
	.file	14 "/Applications/Xcode.app/Contents/Developer/Platforms/iPhoneSimulator.platform/Developer/SDKs/iPhoneSimulator15.2.sdk/usr/include/sys/_types" "_va_list.h"
	.file	15 "/Applications/Xcode.app/Contents/Developer/Platforms/iPhoneSimulator.platform/Developer/SDKs/iPhoneSimulator15.2.sdk/System/Library/Frameworks/CoreGraphics.framework/Headers" "CGBase.h"